SF:/home/nicholas/git/nicholaswilde/syncthing-mcp-rs/src/api/client.rs
FN:114,_RNCNvMNtNtCsk1nGwz09EVE_16syncthing_mcp_rs3api6clientNtB4_15SyncThingClient10add_folder0CsfMwzdq720X6_23docker_integration_test
FN:49,_RNCNCNCNvMNtNtCsk1nGwz09EVE_16syncthing_mcp_rs3api6clientNtB8_15SyncThingClient15send_with_retry000Bc_
FN:52,_RNCNCNCNvMNtNtCsk1nGwz09EVE_16syncthing_mcp_rs3api6clientNtB8_15SyncThingClient15send_with_retry00s_0Bc_
FN:48,_RNCNCNvMNtNtCsk1nGwz09EVE_16syncthing_mcp_rs3api6clientNtB6_15SyncThingClient15send_with_retry00Ba_
FN:187,_RNCNvMNtNtCsk1nGwz09EVE_16syncthing_mcp_rs3api6clientNtB4_15SyncThingClient10add_device0B8_
FN:87,_RNCNvMNtNtCsk1nGwz09EVE_16syncthing_mcp_rs3api6clientNtB4_15SyncThingClient10get_config0B8_
FN:304,_RNCNvMNtNtCsk1nGwz09EVE_16syncthing_mcp_rs3api6clientNtB4_15SyncThingClient10get_events0B8_
FN:128,_RNCNvMNtNtCsk1nGwz09EVE_16syncthing_mcp_rs3api6clientNtB4_15SyncThingClient10get_folder0B8_
FN:96,_RNCNvMNtNtCsk1nGwz09EVE_16syncthing_mcp_rs3api6clientNtB4_15SyncThingClient10set_config0B8_
FN:146,_RNCNvMNtNtCsk1nGwz09EVE_16syncthing_mcp_rs3api6clientNtB4_15SyncThingClient11get_ignores0B8_
FN:160,_RNCNvMNtNtCsk1nGwz09EVE_16syncthing_mcp_rs3api6clientNtB4_15SyncThingClient11set_ignores0B8_
FN:295,_RNCNvMNtNtCsk1nGwz09EVE_16syncthing_mcp_rs3api6clientNtB4_15SyncThingClient12clear_errors0B8_
FN:436,_RNCNvMNtNtCsk1nGwz09EVE_16syncthing_mcp_rs3api6clientNtB4_15SyncThingClient12health_check0B8_
FN:178,_RNCNvMNtNtCsk1nGwz09EVE_16syncthing_mcp_rs3api6clientNtB4_15SyncThingClient12list_devices0B8_
FN:105,_RNCNvMNtNtCsk1nGwz09EVE_16syncthing_mcp_rs3api6clientNtB4_15SyncThingClient12list_folders0B8_
FN:212,_RNCNvMNtNtCsk1nGwz09EVE_16syncthing_mcp_rs3api6clientNtB4_15SyncThingClient12patch_device0B8_
FN:137,_RNCNvMNtNtCsk1nGwz09EVE_16syncthing_mcp_rs3api6clientNtB4_15SyncThingClient12patch_folder0B8_
FN:203,_RNCNvMNtNtCsk1nGwz09EVE_16syncthing_mcp_rs3api6clientNtB4_15SyncThingClient13remove_device0B8_
FN:266,_RNCNvMNtNtCsk1nGwz09EVE_16syncthing_mcp_rs3api6clientNtB4_15SyncThingClient13revert_folder0B8_
FN:409,_RNCNvMNtNtCsk1nGwz09EVE_16syncthing_mcp_rs3api6clientNtB4_15SyncThingClient14get_system_log0B8_
FN:400,_RNCNvMNtNtCsk1nGwz09EVE_16syncthing_mcp_rs3api6clientNtB4_15SyncThingClient15get_connections0B8_
FN:40,_RNCNvMNtNtCsk1nGwz09EVE_16syncthing_mcp_rs3api6clientNtB4_15SyncThingClient15send_with_retry0B8_
FN:418,_RNCNvMNtNtCsk1nGwz09EVE_16syncthing_mcp_rs3api6clientNtB4_15SyncThingClient16get_device_stats0B8_
FN:427,_RNCNvMNtNtCsk1nGwz09EVE_16syncthing_mcp_rs3api6clientNtB4_15SyncThingClient16get_folder_stats0B8_
FN:232,_RNCNvMNtNtCsk1nGwz09EVE_16syncthing_mcp_rs3api6clientNtB4_15SyncThingClient17get_folder_status0B8_
FN:69,_RNCNvMNtNtCsk1nGwz09EVE_16syncthing_mcp_rs3api6clientNtB4_15SyncThingClient17get_system_status0B8_
FN:78,_RNCNvMNtNtCsk1nGwz09EVE_16syncthing_mcp_rs3api6clientNtB4_15SyncThingClient18get_system_version0B8_
FN:221,_RNCNvMNtNtCsk1nGwz09EVE_16syncthing_mcp_rs3api6clientNtB4_15SyncThingClient18validate_device_id0B8_
FN:360,_RNCNvMNtNtCsk1nGwz09EVE_16syncthing_mcp_rs3api6clientNtB4_15SyncThingClient19get_pending_devices0B8_
FN:380,_RNCNvMNtNtCsk1nGwz09EVE_16syncthing_mcp_rs3api6clientNtB4_15SyncThingClient19get_pending_folders0B8_
FN:243,_RNCNvMNtNtCsk1nGwz09EVE_16syncthing_mcp_rs3api6clientNtB4_15SyncThingClient21get_device_completion0B8_
FN:369,_RNCNvMNtNtCsk1nGwz09EVE_16syncthing_mcp_rs3api6clientNtB4_15SyncThingClient21remove_pending_device0B8_
FN:389,_RNCNvMNtNtCsk1nGwz09EVE_16syncthing_mcp_rs3api6clientNtB4_15SyncThingClient21remove_pending_folder0B8_
FN:26,_RNCNvMNtNtCsk1nGwz09EVE_16syncthing_mcp_rs3api6clientNtB4_15SyncThingClient3new0B8_
FN:335,_RNCNvMNtNtCsk1nGwz09EVE_16syncthing_mcp_rs3api6clientNtB4_15SyncThingClient6browse0B8_
FN:254,_RNCNvMNtNtCsk1nGwz09EVE_16syncthing_mcp_rs3api6clientNtB4_15SyncThingClient6rescan0B8_
FN:277,_RNCNvMNtNtCsk1nGwz09EVE_16syncthing_mcp_rs3api6clientNtB4_15SyncThingClient7restart0B8_
FN:286,_RNCNvMNtNtCsk1nGwz09EVE_16syncthing_mcp_rs3api6clientNtB4_15SyncThingClient8shutdown0B8_
FN:114,_RNCNvMNtNtCsk1nGwz09EVE_16syncthing_mcp_rs3api6clientNtB4_15SyncThingClient10add_folder0B8_
FN:187,_RNvMNtNtCsk1nGwz09EVE_16syncthing_mcp_rs3api6clientNtB2_15SyncThingClient10add_device
FN:114,_RNvMNtNtCsk1nGwz09EVE_16syncthing_mcp_rs3api6clientNtB2_15SyncThingClient10add_folder
FN:87,_RNvMNtNtCsk1nGwz09EVE_16syncthing_mcp_rs3api6clientNtB2_15SyncThingClient10get_config
FN:304,_RNvMNtNtCsk1nGwz09EVE_16syncthing_mcp_rs3api6clientNtB2_15SyncThingClient10get_events
FN:128,_RNvMNtNtCsk1nGwz09EVE_16syncthing_mcp_rs3api6clientNtB2_15SyncThingClient10get_folder
FN:96,_RNvMNtNtCsk1nGwz09EVE_16syncthing_mcp_rs3api6clientNtB2_15SyncThingClient10set_config
FN:146,_RNvMNtNtCsk1nGwz09EVE_16syncthing_mcp_rs3api6clientNtB2_15SyncThingClient11get_ignores
FN:160,_RNvMNtNtCsk1nGwz09EVE_16syncthing_mcp_rs3api6clientNtB2_15SyncThingClient11set_ignores
FN:295,_RNvMNtNtCsk1nGwz09EVE_16syncthing_mcp_rs3api6clientNtB2_15SyncThingClient12clear_errors
FN:436,_RNvMNtNtCsk1nGwz09EVE_16syncthing_mcp_rs3api6clientNtB2_15SyncThingClient12health_check
FN:178,_RNvMNtNtCsk1nGwz09EVE_16syncthing_mcp_rs3api6clientNtB2_15SyncThingClient12list_devices
FN:105,_RNvMNtNtCsk1nGwz09EVE_16syncthing_mcp_rs3api6clientNtB2_15SyncThingClient12list_folders
FN:212,_RNvMNtNtCsk1nGwz09EVE_16syncthing_mcp_rs3api6clientNtB2_15SyncThingClient12patch_device
FN:137,_RNvMNtNtCsk1nGwz09EVE_16syncthing_mcp_rs3api6clientNtB2_15SyncThingClient12patch_folder
FN:203,_RNvMNtNtCsk1nGwz09EVE_16syncthing_mcp_rs3api6clientNtB2_15SyncThingClient13remove_device
FN:266,_RNvMNtNtCsk1nGwz09EVE_16syncthing_mcp_rs3api6clientNtB2_15SyncThingClient13revert_folder
FN:409,_RNvMNtNtCsk1nGwz09EVE_16syncthing_mcp_rs3api6clientNtB2_15SyncThingClient14get_system_log
FN:400,_RNvMNtNtCsk1nGwz09EVE_16syncthing_mcp_rs3api6clientNtB2_15SyncThingClient15get_connections
FN:37,_RNvMNtNtCsk1nGwz09EVE_16syncthing_mcp_rs3api6clientNtB2_15SyncThingClient15send_with_retry
FN:418,_RNvMNtNtCsk1nGwz09EVE_16syncthing_mcp_rs3api6clientNtB2_15SyncThingClient16get_device_stats
FN:427,_RNvMNtNtCsk1nGwz09EVE_16syncthing_mcp_rs3api6clientNtB2_15SyncThingClient16get_folder_stats
FN:232,_RNvMNtNtCsk1nGwz09EVE_16syncthing_mcp_rs3api6clientNtB2_15SyncThingClient17get_folder_status
FN:69,_RNvMNtNtCsk1nGwz09EVE_16syncthing_mcp_rs3api6clientNtB2_15SyncThingClient17get_system_status
FN:78,_RNvMNtNtCsk1nGwz09EVE_16syncthing_mcp_rs3api6clientNtB2_15SyncThingClient18get_system_version
FN:221,_RNvMNtNtCsk1nGwz09EVE_16syncthing_mcp_rs3api6clientNtB2_15SyncThingClient18validate_device_id
FN:360,_RNvMNtNtCsk1nGwz09EVE_16syncthing_mcp_rs3api6clientNtB2_15SyncThingClient19get_pending_devices
FN:380,_RNvMNtNtCsk1nGwz09EVE_16syncthing_mcp_rs3api6clientNtB2_15SyncThingClient19get_pending_folders
FN:243,_RNvMNtNtCsk1nGwz09EVE_16syncthing_mcp_rs3api6clientNtB2_15SyncThingClient21get_device_completion
FN:369,_RNvMNtNtCsk1nGwz09EVE_16syncthing_mcp_rs3api6clientNtB2_15SyncThingClient21remove_pending_device
FN:389,_RNvMNtNtCsk1nGwz09EVE_16syncthing_mcp_rs3api6clientNtB2_15SyncThingClient21remove_pending_folder
FN:20,_RNvMNtNtCsk1nGwz09EVE_16syncthing_mcp_rs3api6clientNtB2_15SyncThingClient3new
FN:330,_RNvMNtNtCsk1nGwz09EVE_16syncthing_mcp_rs3api6clientNtB2_15SyncThingClient6browse
FN:254,_RNvMNtNtCsk1nGwz09EVE_16syncthing_mcp_rs3api6clientNtB2_15SyncThingClient6rescan
FN:277,_RNvMNtNtCsk1nGwz09EVE_16syncthing_mcp_rs3api6clientNtB2_15SyncThingClient7restart
FN:30,_RNvMNtNtCsk1nGwz09EVE_16syncthing_mcp_rs3api6clientNtB2_15SyncThingClient8add_auth
FN:286,_RNvMNtNtCsk1nGwz09EVE_16syncthing_mcp_rs3api6clientNtB2_15SyncThingClient8shutdown
FN:49,_RNCNCNCNvMNtNtCs1zQjFe0mrqD_16syncthing_mcp_rs3api6clientNtB8_15SyncThingClient15send_with_retry000Bc_
FN:52,_RNCNCNCNvMNtNtCs1zQjFe0mrqD_16syncthing_mcp_rs3api6clientNtB8_15SyncThingClient15send_with_retry00s_0Bc_
FN:48,_RNCNCNvMNtNtCs1zQjFe0mrqD_16syncthing_mcp_rs3api6clientNtB6_15SyncThingClient15send_with_retry00Ba_
FN:187,_RNCNvMNtNtCs1zQjFe0mrqD_16syncthing_mcp_rs3api6clientNtB4_15SyncThingClient10add_device0B8_
FN:114,_RNCNvMNtNtCs1zQjFe0mrqD_16syncthing_mcp_rs3api6clientNtB4_15SyncThingClient10add_folder0B8_
FN:87,_RNCNvMNtNtCs1zQjFe0mrqD_16syncthing_mcp_rs3api6clientNtB4_15SyncThingClient10get_config0B8_
FN:304,_RNCNvMNtNtCs1zQjFe0mrqD_16syncthing_mcp_rs3api6clientNtB4_15SyncThingClient10get_events0B8_
FN:128,_RNCNvMNtNtCs1zQjFe0mrqD_16syncthing_mcp_rs3api6clientNtB4_15SyncThingClient10get_folder0B8_
FN:96,_RNCNvMNtNtCs1zQjFe0mrqD_16syncthing_mcp_rs3api6clientNtB4_15SyncThingClient10set_config0B8_
FN:146,_RNCNvMNtNtCs1zQjFe0mrqD_16syncthing_mcp_rs3api6clientNtB4_15SyncThingClient11get_ignores0B8_
FN:160,_RNCNvMNtNtCs1zQjFe0mrqD_16syncthing_mcp_rs3api6clientNtB4_15SyncThingClient11set_ignores0B8_
FN:295,_RNCNvMNtNtCs1zQjFe0mrqD_16syncthing_mcp_rs3api6clientNtB4_15SyncThingClient12clear_errors0B8_
FN:436,_RNCNvMNtNtCs1zQjFe0mrqD_16syncthing_mcp_rs3api6clientNtB4_15SyncThingClient12health_check0B8_
FN:178,_RNCNvMNtNtCs1zQjFe0mrqD_16syncthing_mcp_rs3api6clientNtB4_15SyncThingClient12list_devices0B8_
FN:105,_RNCNvMNtNtCs1zQjFe0mrqD_16syncthing_mcp_rs3api6clientNtB4_15SyncThingClient12list_folders0B8_
FN:212,_RNCNvMNtNtCs1zQjFe0mrqD_16syncthing_mcp_rs3api6clientNtB4_15SyncThingClient12patch_device0B8_
FN:137,_RNCNvMNtNtCs1zQjFe0mrqD_16syncthing_mcp_rs3api6clientNtB4_15SyncThingClient12patch_folder0B8_
FN:203,_RNCNvMNtNtCs1zQjFe0mrqD_16syncthing_mcp_rs3api6clientNtB4_15SyncThingClient13remove_device0B8_
FN:266,_RNCNvMNtNtCs1zQjFe0mrqD_16syncthing_mcp_rs3api6clientNtB4_15SyncThingClient13revert_folder0B8_
FN:409,_RNCNvMNtNtCs1zQjFe0mrqD_16syncthing_mcp_rs3api6clientNtB4_15SyncThingClient14get_system_log0B8_
FN:400,_RNCNvMNtNtCs1zQjFe0mrqD_16syncthing_mcp_rs3api6clientNtB4_15SyncThingClient15get_connections0B8_
FN:40,_RNCNvMNtNtCs1zQjFe0mrqD_16syncthing_mcp_rs3api6clientNtB4_15SyncThingClient15send_with_retry0B8_
FN:418,_RNCNvMNtNtCs1zQjFe0mrqD_16syncthing_mcp_rs3api6clientNtB4_15SyncThingClient16get_device_stats0B8_
FN:427,_RNCNvMNtNtCs1zQjFe0mrqD_16syncthing_mcp_rs3api6clientNtB4_15SyncThingClient16get_folder_stats0B8_
FN:232,_RNCNvMNtNtCs1zQjFe0mrqD_16syncthing_mcp_rs3api6clientNtB4_15SyncThingClient17get_folder_status0B8_
FN:69,_RNCNvMNtNtCs1zQjFe0mrqD_16syncthing_mcp_rs3api6clientNtB4_15SyncThingClient17get_system_status0B8_
FN:78,_RNCNvMNtNtCs1zQjFe0mrqD_16syncthing_mcp_rs3api6clientNtB4_15SyncThingClient18get_system_version0B8_
FN:221,_RNCNvMNtNtCs1zQjFe0mrqD_16syncthing_mcp_rs3api6clientNtB4_15SyncThingClient18validate_device_id0B8_
FN:360,_RNCNvMNtNtCs1zQjFe0mrqD_16syncthing_mcp_rs3api6clientNtB4_15SyncThingClient19get_pending_devices0B8_
FN:380,_RNCNvMNtNtCs1zQjFe0mrqD_16syncthing_mcp_rs3api6clientNtB4_15SyncThingClient19get_pending_folders0B8_
FN:243,_RNCNvMNtNtCs1zQjFe0mrqD_16syncthing_mcp_rs3api6clientNtB4_15SyncThingClient21get_device_completion0B8_
FN:369,_RNCNvMNtNtCs1zQjFe0mrqD_16syncthing_mcp_rs3api6clientNtB4_15SyncThingClient21remove_pending_device0B8_
FN:389,_RNCNvMNtNtCs1zQjFe0mrqD_16syncthing_mcp_rs3api6clientNtB4_15SyncThingClient21remove_pending_folder0B8_
FN:26,_RNCNvMNtNtCs1zQjFe0mrqD_16syncthing_mcp_rs3api6clientNtB4_15SyncThingClient3new0B8_
FN:335,_RNCNvMNtNtCs1zQjFe0mrqD_16syncthing_mcp_rs3api6clientNtB4_15SyncThingClient6browse0B8_
FN:254,_RNCNvMNtNtCs1zQjFe0mrqD_16syncthing_mcp_rs3api6clientNtB4_15SyncThingClient6rescan0B8_
FN:277,_RNCNvMNtNtCs1zQjFe0mrqD_16syncthing_mcp_rs3api6clientNtB4_15SyncThingClient7restart0B8_
FN:286,_RNCNvMNtNtCs1zQjFe0mrqD_16syncthing_mcp_rs3api6clientNtB4_15SyncThingClient8shutdown0B8_
FN:187,_RNvMNtNtCs1zQjFe0mrqD_16syncthing_mcp_rs3api6clientNtB2_15SyncThingClient10add_device
FN:114,_RNvMNtNtCs1zQjFe0mrqD_16syncthing_mcp_rs3api6clientNtB2_15SyncThingClient10add_folder
FN:87,_RNvMNtNtCs1zQjFe0mrqD_16syncthing_mcp_rs3api6clientNtB2_15SyncThingClient10get_config
FN:304,_RNvMNtNtCs1zQjFe0mrqD_16syncthing_mcp_rs3api6clientNtB2_15SyncThingClient10get_events
FN:128,_RNvMNtNtCs1zQjFe0mrqD_16syncthing_mcp_rs3api6clientNtB2_15SyncThingClient10get_folder
FN:96,_RNvMNtNtCs1zQjFe0mrqD_16syncthing_mcp_rs3api6clientNtB2_15SyncThingClient10set_config
FN:146,_RNvMNtNtCs1zQjFe0mrqD_16syncthing_mcp_rs3api6clientNtB2_15SyncThingClient11get_ignores
FN:160,_RNvMNtNtCs1zQjFe0mrqD_16syncthing_mcp_rs3api6clientNtB2_15SyncThingClient11set_ignores
FN:295,_RNvMNtNtCs1zQjFe0mrqD_16syncthing_mcp_rs3api6clientNtB2_15SyncThingClient12clear_errors
FN:436,_RNvMNtNtCs1zQjFe0mrqD_16syncthing_mcp_rs3api6clientNtB2_15SyncThingClient12health_check
FN:178,_RNvMNtNtCs1zQjFe0mrqD_16syncthing_mcp_rs3api6clientNtB2_15SyncThingClient12list_devices
FN:105,_RNvMNtNtCs1zQjFe0mrqD_16syncthing_mcp_rs3api6clientNtB2_15SyncThingClient12list_folders
FN:212,_RNvMNtNtCs1zQjFe0mrqD_16syncthing_mcp_rs3api6clientNtB2_15SyncThingClient12patch_device
FN:137,_RNvMNtNtCs1zQjFe0mrqD_16syncthing_mcp_rs3api6clientNtB2_15SyncThingClient12patch_folder
FN:203,_RNvMNtNtCs1zQjFe0mrqD_16syncthing_mcp_rs3api6clientNtB2_15SyncThingClient13remove_device
FN:266,_RNvMNtNtCs1zQjFe0mrqD_16syncthing_mcp_rs3api6clientNtB2_15SyncThingClient13revert_folder
FN:409,_RNvMNtNtCs1zQjFe0mrqD_16syncthing_mcp_rs3api6clientNtB2_15SyncThingClient14get_system_log
FN:400,_RNvMNtNtCs1zQjFe0mrqD_16syncthing_mcp_rs3api6clientNtB2_15SyncThingClient15get_connections
FN:37,_RNvMNtNtCs1zQjFe0mrqD_16syncthing_mcp_rs3api6clientNtB2_15SyncThingClient15send_with_retry
FN:418,_RNvMNtNtCs1zQjFe0mrqD_16syncthing_mcp_rs3api6clientNtB2_15SyncThingClient16get_device_stats
FN:427,_RNvMNtNtCs1zQjFe0mrqD_16syncthing_mcp_rs3api6clientNtB2_15SyncThingClient16get_folder_stats
FN:232,_RNvMNtNtCs1zQjFe0mrqD_16syncthing_mcp_rs3api6clientNtB2_15SyncThingClient17get_folder_status
FN:69,_RNvMNtNtCs1zQjFe0mrqD_16syncthing_mcp_rs3api6clientNtB2_15SyncThingClient17get_system_status
FN:78,_RNvMNtNtCs1zQjFe0mrqD_16syncthing_mcp_rs3api6clientNtB2_15SyncThingClient18get_system_version
FN:221,_RNvMNtNtCs1zQjFe0mrqD_16syncthing_mcp_rs3api6clientNtB2_15SyncThingClient18validate_device_id
FN:360,_RNvMNtNtCs1zQjFe0mrqD_16syncthing_mcp_rs3api6clientNtB2_15SyncThingClient19get_pending_devices
FN:380,_RNvMNtNtCs1zQjFe0mrqD_16syncthing_mcp_rs3api6clientNtB2_15SyncThingClient19get_pending_folders
FN:243,_RNvMNtNtCs1zQjFe0mrqD_16syncthing_mcp_rs3api6clientNtB2_15SyncThingClient21get_device_completion
FN:369,_RNvMNtNtCs1zQjFe0mrqD_16syncthing_mcp_rs3api6clientNtB2_15SyncThingClient21remove_pending_device
FN:389,_RNvMNtNtCs1zQjFe0mrqD_16syncthing_mcp_rs3api6clientNtB2_15SyncThingClient21remove_pending_folder
FN:20,_RNvMNtNtCs1zQjFe0mrqD_16syncthing_mcp_rs3api6clientNtB2_15SyncThingClient3new
FN:330,_RNvMNtNtCs1zQjFe0mrqD_16syncthing_mcp_rs3api6clientNtB2_15SyncThingClient6browse
FN:254,_RNvMNtNtCs1zQjFe0mrqD_16syncthing_mcp_rs3api6clientNtB2_15SyncThingClient6rescan
FN:277,_RNvMNtNtCs1zQjFe0mrqD_16syncthing_mcp_rs3api6clientNtB2_15SyncThingClient7restart
FN:30,_RNvMNtNtCs1zQjFe0mrqD_16syncthing_mcp_rs3api6clientNtB2_15SyncThingClient8add_auth
FN:286,_RNvMNtNtCs1zQjFe0mrqD_16syncthing_mcp_rs3api6clientNtB2_15SyncThingClient8shutdown
FNDA:0,_RNCNvMNtNtCsk1nGwz09EVE_16syncthing_mcp_rs3api6clientNtB4_15SyncThingClient10add_folder0CsfMwzdq720X6_23docker_integration_test
FNDA:0,_RNCNCNCNvMNtNtCsk1nGwz09EVE_16syncthing_mcp_rs3api6clientNtB8_15SyncThingClient15send_with_retry000Bc_
FNDA:0,_RNCNCNCNvMNtNtCsk1nGwz09EVE_16syncthing_mcp_rs3api6clientNtB8_15SyncThingClient15send_with_retry00s_0Bc_
FNDA:0,_RNCNCNvMNtNtCsk1nGwz09EVE_16syncthing_mcp_rs3api6clientNtB6_15SyncThingClient15send_with_retry00Ba_
FNDA:0,_RNCNvMNtNtCsk1nGwz09EVE_16syncthing_mcp_rs3api6clientNtB4_15SyncThingClient10add_device0B8_
FNDA:0,_RNCNvMNtNtCsk1nGwz09EVE_16syncthing_mcp_rs3api6clientNtB4_15SyncThingClient10get_config0B8_
FNDA:0,_RNCNvMNtNtCsk1nGwz09EVE_16syncthing_mcp_rs3api6clientNtB4_15SyncThingClient10get_events0B8_
FNDA:0,_RNCNvMNtNtCsk1nGwz09EVE_16syncthing_mcp_rs3api6clientNtB4_15SyncThingClient10get_folder0B8_
FNDA:0,_RNCNvMNtNtCsk1nGwz09EVE_16syncthing_mcp_rs3api6clientNtB4_15SyncThingClient10set_config0B8_
FNDA:0,_RNCNvMNtNtCsk1nGwz09EVE_16syncthing_mcp_rs3api6clientNtB4_15SyncThingClient11get_ignores0B8_
FNDA:0,_RNCNvMNtNtCsk1nGwz09EVE_16syncthing_mcp_rs3api6clientNtB4_15SyncThingClient11set_ignores0B8_
FNDA:0,_RNCNvMNtNtCsk1nGwz09EVE_16syncthing_mcp_rs3api6clientNtB4_15SyncThingClient12clear_errors0B8_
FNDA:0,_RNCNvMNtNtCsk1nGwz09EVE_16syncthing_mcp_rs3api6clientNtB4_15SyncThingClient12health_check0B8_
FNDA:0,_RNCNvMNtNtCsk1nGwz09EVE_16syncthing_mcp_rs3api6clientNtB4_15SyncThingClient12list_devices0B8_
FNDA:0,_RNCNvMNtNtCsk1nGwz09EVE_16syncthing_mcp_rs3api6clientNtB4_15SyncThingClient12list_folders0B8_
FNDA:0,_RNCNvMNtNtCsk1nGwz09EVE_16syncthing_mcp_rs3api6clientNtB4_15SyncThingClient12patch_device0B8_
FNDA:0,_RNCNvMNtNtCsk1nGwz09EVE_16syncthing_mcp_rs3api6clientNtB4_15SyncThingClient12patch_folder0B8_
FNDA:0,_RNCNvMNtNtCsk1nGwz09EVE_16syncthing_mcp_rs3api6clientNtB4_15SyncThingClient13remove_device0B8_
FNDA:0,_RNCNvMNtNtCsk1nGwz09EVE_16syncthing_mcp_rs3api6clientNtB4_15SyncThingClient13revert_folder0B8_
FNDA:0,_RNCNvMNtNtCsk1nGwz09EVE_16syncthing_mcp_rs3api6clientNtB4_15SyncThingClient14get_system_log0B8_
FNDA:0,_RNCNvMNtNtCsk1nGwz09EVE_16syncthing_mcp_rs3api6clientNtB4_15SyncThingClient15get_connections0B8_
FNDA:0,_RNCNvMNtNtCsk1nGwz09EVE_16syncthing_mcp_rs3api6clientNtB4_15SyncThingClient15send_with_retry0B8_
FNDA:0,_RNCNvMNtNtCsk1nGwz09EVE_16syncthing_mcp_rs3api6clientNtB4_15SyncThingClient16get_device_stats0B8_
FNDA:0,_RNCNvMNtNtCsk1nGwz09EVE_16syncthing_mcp_rs3api6clientNtB4_15SyncThingClient16get_folder_stats0B8_
FNDA:0,_RNCNvMNtNtCsk1nGwz09EVE_16syncthing_mcp_rs3api6clientNtB4_15SyncThingClient17get_folder_status0B8_
FNDA:0,_RNCNvMNtNtCsk1nGwz09EVE_16syncthing_mcp_rs3api6clientNtB4_15SyncThingClient17get_system_status0B8_
FNDA:0,_RNCNvMNtNtCsk1nGwz09EVE_16syncthing_mcp_rs3api6clientNtB4_15SyncThingClient18get_system_version0B8_
FNDA:0,_RNCNvMNtNtCsk1nGwz09EVE_16syncthing_mcp_rs3api6clientNtB4_15SyncThingClient18validate_device_id0B8_
FNDA:0,_RNCNvMNtNtCsk1nGwz09EVE_16syncthing_mcp_rs3api6clientNtB4_15SyncThingClient19get_pending_devices0B8_
FNDA:0,_RNCNvMNtNtCsk1nGwz09EVE_16syncthing_mcp_rs3api6clientNtB4_15SyncThingClient19get_pending_folders0B8_
FNDA:0,_RNCNvMNtNtCsk1nGwz09EVE_16syncthing_mcp_rs3api6clientNtB4_15SyncThingClient21get_device_completion0B8_
FNDA:0,_RNCNvMNtNtCsk1nGwz09EVE_16syncthing_mcp_rs3api6clientNtB4_15SyncThingClient21remove_pending_device0B8_
FNDA:0,_RNCNvMNtNtCsk1nGwz09EVE_16syncthing_mcp_rs3api6clientNtB4_15SyncThingClient21remove_pending_folder0B8_
FNDA:0,_RNCNvMNtNtCsk1nGwz09EVE_16syncthing_mcp_rs3api6clientNtB4_15SyncThingClient3new0B8_
FNDA:0,_RNCNvMNtNtCsk1nGwz09EVE_16syncthing_mcp_rs3api6clientNtB4_15SyncThingClient6browse0B8_
FNDA:0,_RNCNvMNtNtCsk1nGwz09EVE_16syncthing_mcp_rs3api6clientNtB4_15SyncThingClient6rescan0B8_
FNDA:0,_RNCNvMNtNtCsk1nGwz09EVE_16syncthing_mcp_rs3api6clientNtB4_15SyncThingClient7restart0B8_
FNDA:0,_RNCNvMNtNtCsk1nGwz09EVE_16syncthing_mcp_rs3api6clientNtB4_15SyncThingClient8shutdown0B8_
FNDA:0,_RNCNvMNtNtCsk1nGwz09EVE_16syncthing_mcp_rs3api6clientNtB4_15SyncThingClient10add_folder0B8_
FNDA:0,_RNvMNtNtCsk1nGwz09EVE_16syncthing_mcp_rs3api6clientNtB2_15SyncThingClient10add_device
FNDA:0,_RNvMNtNtCsk1nGwz09EVE_16syncthing_mcp_rs3api6clientNtB2_15SyncThingClient10add_folder
FNDA:0,_RNvMNtNtCsk1nGwz09EVE_16syncthing_mcp_rs3api6clientNtB2_15SyncThingClient10get_config
FNDA:0,_RNvMNtNtCsk1nGwz09EVE_16syncthing_mcp_rs3api6clientNtB2_15SyncThingClient10get_events
FNDA:0,_RNvMNtNtCsk1nGwz09EVE_16syncthing_mcp_rs3api6clientNtB2_15SyncThingClient10get_folder
FNDA:0,_RNvMNtNtCsk1nGwz09EVE_16syncthing_mcp_rs3api6clientNtB2_15SyncThingClient10set_config
FNDA:0,_RNvMNtNtCsk1nGwz09EVE_16syncthing_mcp_rs3api6clientNtB2_15SyncThingClient11get_ignores
FNDA:0,_RNvMNtNtCsk1nGwz09EVE_16syncthing_mcp_rs3api6clientNtB2_15SyncThingClient11set_ignores
FNDA:0,_RNvMNtNtCsk1nGwz09EVE_16syncthing_mcp_rs3api6clientNtB2_15SyncThingClient12clear_errors
FNDA:0,_RNvMNtNtCsk1nGwz09EVE_16syncthing_mcp_rs3api6clientNtB2_15SyncThingClient12health_check
FNDA:0,_RNvMNtNtCsk1nGwz09EVE_16syncthing_mcp_rs3api6clientNtB2_15SyncThingClient12list_devices
FNDA:0,_RNvMNtNtCsk1nGwz09EVE_16syncthing_mcp_rs3api6clientNtB2_15SyncThingClient12list_folders
FNDA:0,_RNvMNtNtCsk1nGwz09EVE_16syncthing_mcp_rs3api6clientNtB2_15SyncThingClient12patch_device
FNDA:0,_RNvMNtNtCsk1nGwz09EVE_16syncthing_mcp_rs3api6clientNtB2_15SyncThingClient12patch_folder
FNDA:0,_RNvMNtNtCsk1nGwz09EVE_16syncthing_mcp_rs3api6clientNtB2_15SyncThingClient13remove_device
FNDA:0,_RNvMNtNtCsk1nGwz09EVE_16syncthing_mcp_rs3api6clientNtB2_15SyncThingClient13revert_folder
FNDA:0,_RNvMNtNtCsk1nGwz09EVE_16syncthing_mcp_rs3api6clientNtB2_15SyncThingClient14get_system_log
FNDA:0,_RNvMNtNtCsk1nGwz09EVE_16syncthing_mcp_rs3api6clientNtB2_15SyncThingClient15get_connections
FNDA:0,_RNvMNtNtCsk1nGwz09EVE_16syncthing_mcp_rs3api6clientNtB2_15SyncThingClient15send_with_retry
FNDA:0,_RNvMNtNtCsk1nGwz09EVE_16syncthing_mcp_rs3api6clientNtB2_15SyncThingClient16get_device_stats
FNDA:0,_RNvMNtNtCsk1nGwz09EVE_16syncthing_mcp_rs3api6clientNtB2_15SyncThingClient16get_folder_stats
FNDA:0,_RNvMNtNtCsk1nGwz09EVE_16syncthing_mcp_rs3api6clientNtB2_15SyncThingClient17get_folder_status
FNDA:0,_RNvMNtNtCsk1nGwz09EVE_16syncthing_mcp_rs3api6clientNtB2_15SyncThingClient17get_system_status
FNDA:0,_RNvMNtNtCsk1nGwz09EVE_16syncthing_mcp_rs3api6clientNtB2_15SyncThingClient18get_system_version
FNDA:0,_RNvMNtNtCsk1nGwz09EVE_16syncthing_mcp_rs3api6clientNtB2_15SyncThingClient18validate_device_id
FNDA:0,_RNvMNtNtCsk1nGwz09EVE_16syncthing_mcp_rs3api6clientNtB2_15SyncThingClient19get_pending_devices
FNDA:0,_RNvMNtNtCsk1nGwz09EVE_16syncthing_mcp_rs3api6clientNtB2_15SyncThingClient19get_pending_folders
FNDA:0,_RNvMNtNtCsk1nGwz09EVE_16syncthing_mcp_rs3api6clientNtB2_15SyncThingClient21get_device_completion
FNDA:0,_RNvMNtNtCsk1nGwz09EVE_16syncthing_mcp_rs3api6clientNtB2_15SyncThingClient21remove_pending_device
FNDA:0,_RNvMNtNtCsk1nGwz09EVE_16syncthing_mcp_rs3api6clientNtB2_15SyncThingClient21remove_pending_folder
FNDA:0,_RNvMNtNtCsk1nGwz09EVE_16syncthing_mcp_rs3api6clientNtB2_15SyncThingClient3new
FNDA:0,_RNvMNtNtCsk1nGwz09EVE_16syncthing_mcp_rs3api6clientNtB2_15SyncThingClient6browse
FNDA:0,_RNvMNtNtCsk1nGwz09EVE_16syncthing_mcp_rs3api6clientNtB2_15SyncThingClient6rescan
FNDA:0,_RNvMNtNtCsk1nGwz09EVE_16syncthing_mcp_rs3api6clientNtB2_15SyncThingClient7restart
FNDA:0,_RNvMNtNtCsk1nGwz09EVE_16syncthing_mcp_rs3api6clientNtB2_15SyncThingClient8add_auth
FNDA:0,_RNvMNtNtCsk1nGwz09EVE_16syncthing_mcp_rs3api6clientNtB2_15SyncThingClient8shutdown
FNDA:0,_RNCNCNCNvMNtNtCs1zQjFe0mrqD_16syncthing_mcp_rs3api6clientNtB8_15SyncThingClient15send_with_retry000Bc_
FNDA:245,_RNCNCNCNvMNtNtCs1zQjFe0mrqD_16syncthing_mcp_rs3api6clientNtB8_15SyncThingClient15send_with_retry00s_0Bc_
FNDA:245,_RNCNCNvMNtNtCs1zQjFe0mrqD_16syncthing_mcp_rs3api6clientNtB6_15SyncThingClient15send_with_retry00Ba_
FNDA:3,_RNCNvMNtNtCs1zQjFe0mrqD_16syncthing_mcp_rs3api6clientNtB4_15SyncThingClient10add_device0B8_
FNDA:1,_RNCNvMNtNtCs1zQjFe0mrqD_16syncthing_mcp_rs3api6clientNtB4_15SyncThingClient10add_folder0B8_
FNDA:41,_RNCNvMNtNtCs1zQjFe0mrqD_16syncthing_mcp_rs3api6clientNtB4_15SyncThingClient10get_config0B8_
FNDA:21,_RNCNvMNtNtCs1zQjFe0mrqD_16syncthing_mcp_rs3api6clientNtB4_15SyncThingClient10get_events0B8_
FNDA:12,_RNCNvMNtNtCs1zQjFe0mrqD_16syncthing_mcp_rs3api6clientNtB4_15SyncThingClient10get_folder0B8_
FNDA:14,_RNCNvMNtNtCs1zQjFe0mrqD_16syncthing_mcp_rs3api6clientNtB4_15SyncThingClient10set_config0B8_
FNDA:5,_RNCNvMNtNtCs1zQjFe0mrqD_16syncthing_mcp_rs3api6clientNtB4_15SyncThingClient11get_ignores0B8_
FNDA:3,_RNCNvMNtNtCs1zQjFe0mrqD_16syncthing_mcp_rs3api6clientNtB4_15SyncThingClient11set_ignores0B8_
FNDA:2,_RNCNvMNtNtCs1zQjFe0mrqD_16syncthing_mcp_rs3api6clientNtB4_15SyncThingClient12clear_errors0B8_
FNDA:8,_RNCNvMNtNtCs1zQjFe0mrqD_16syncthing_mcp_rs3api6clientNtB4_15SyncThingClient12health_check0B8_
FNDA:3,_RNCNvMNtNtCs1zQjFe0mrqD_16syncthing_mcp_rs3api6clientNtB4_15SyncThingClient12list_devices0B8_
FNDA:7,_RNCNvMNtNtCs1zQjFe0mrqD_16syncthing_mcp_rs3api6clientNtB4_15SyncThingClient12list_folders0B8_
FNDA:3,_RNCNvMNtNtCs1zQjFe0mrqD_16syncthing_mcp_rs3api6clientNtB4_15SyncThingClient12patch_device0B8_
FNDA:4,_RNCNvMNtNtCs1zQjFe0mrqD_16syncthing_mcp_rs3api6clientNtB4_15SyncThingClient12patch_folder0B8_
FNDA:2,_RNCNvMNtNtCs1zQjFe0mrqD_16syncthing_mcp_rs3api6clientNtB4_15SyncThingClient13remove_device0B8_
FNDA:3,_RNCNvMNtNtCs1zQjFe0mrqD_16syncthing_mcp_rs3api6clientNtB4_15SyncThingClient13revert_folder0B8_
FNDA:2,_RNCNvMNtNtCs1zQjFe0mrqD_16syncthing_mcp_rs3api6clientNtB4_15SyncThingClient14get_system_log0B8_
FNDA:7,_RNCNvMNtNtCs1zQjFe0mrqD_16syncthing_mcp_rs3api6clientNtB4_15SyncThingClient15get_connections0B8_
FNDA:196,_RNCNvMNtNtCs1zQjFe0mrqD_16syncthing_mcp_rs3api6clientNtB4_15SyncThingClient15send_with_retry0B8_
FNDA:2,_RNCNvMNtNtCs1zQjFe0mrqD_16syncthing_mcp_rs3api6clientNtB4_15SyncThingClient16get_device_stats0B8_
FNDA:3,_RNCNvMNtNtCs1zQjFe0mrqD_16syncthing_mcp_rs3api6clientNtB4_15SyncThingClient16get_folder_stats0B8_
FNDA:6,_RNCNvMNtNtCs1zQjFe0mrqD_16syncthing_mcp_rs3api6clientNtB4_15SyncThingClient17get_folder_status0B8_
FNDA:16,_RNCNvMNtNtCs1zQjFe0mrqD_16syncthing_mcp_rs3api6clientNtB4_15SyncThingClient17get_system_status0B8_
FNDA:12,_RNCNvMNtNtCs1zQjFe0mrqD_16syncthing_mcp_rs3api6clientNtB4_15SyncThingClient18get_system_version0B8_
FNDA:4,_RNCNvMNtNtCs1zQjFe0mrqD_16syncthing_mcp_rs3api6clientNtB4_15SyncThingClient18validate_device_id0B8_
FNDA:3,_RNCNvMNtNtCs1zQjFe0mrqD_16syncthing_mcp_rs3api6clientNtB4_15SyncThingClient19get_pending_devices0B8_
FNDA:3,_RNCNvMNtNtCs1zQjFe0mrqD_16syncthing_mcp_rs3api6clientNtB4_15SyncThingClient19get_pending_folders0B8_
FNDA:2,_RNCNvMNtNtCs1zQjFe0mrqD_16syncthing_mcp_rs3api6clientNtB4_15SyncThingClient21get_device_completion0B8_
FNDA:2,_RNCNvMNtNtCs1zQjFe0mrqD_16syncthing_mcp_rs3api6clientNtB4_15SyncThingClient21remove_pending_device0B8_
FNDA:2,_RNCNvMNtNtCs1zQjFe0mrqD_16syncthing_mcp_rs3api6clientNtB4_15SyncThingClient21remove_pending_folder0B8_
FNDA:0,_RNCNvMNtNtCs1zQjFe0mrqD_16syncthing_mcp_rs3api6clientNtB4_15SyncThingClient3new0B8_
FNDA:2,_RNCNvMNtNtCs1zQjFe0mrqD_16syncthing_mcp_rs3api6clientNtB4_15SyncThingClient6browse0B8_
FNDA:2,_RNCNvMNtNtCs1zQjFe0mrqD_16syncthing_mcp_rs3api6clientNtB4_15SyncThingClient6rescan0B8_
FNDA:2,_RNCNvMNtNtCs1zQjFe0mrqD_16syncthing_mcp_rs3api6clientNtB4_15SyncThingClient7restart0B8_
FNDA:2,_RNCNvMNtNtCs1zQjFe0mrqD_16syncthing_mcp_rs3api6clientNtB4_15SyncThingClient8shutdown0B8_
FNDA:3,_RNvMNtNtCs1zQjFe0mrqD_16syncthing_mcp_rs3api6clientNtB2_15SyncThingClient10add_device
FNDA:1,_RNvMNtNtCs1zQjFe0mrqD_16syncthing_mcp_rs3api6clientNtB2_15SyncThingClient10add_folder
FNDA:41,_RNvMNtNtCs1zQjFe0mrqD_16syncthing_mcp_rs3api6clientNtB2_15SyncThingClient10get_config
FNDA:21,_RNvMNtNtCs1zQjFe0mrqD_16syncthing_mcp_rs3api6clientNtB2_15SyncThingClient10get_events
FNDA:12,_RNvMNtNtCs1zQjFe0mrqD_16syncthing_mcp_rs3api6clientNtB2_15SyncThingClient10get_folder
FNDA:14,_RNvMNtNtCs1zQjFe0mrqD_16syncthing_mcp_rs3api6clientNtB2_15SyncThingClient10set_config
FNDA:5,_RNvMNtNtCs1zQjFe0mrqD_16syncthing_mcp_rs3api6clientNtB2_15SyncThingClient11get_ignores
FNDA:3,_RNvMNtNtCs1zQjFe0mrqD_16syncthing_mcp_rs3api6clientNtB2_15SyncThingClient11set_ignores
FNDA:2,_RNvMNtNtCs1zQjFe0mrqD_16syncthing_mcp_rs3api6clientNtB2_15SyncThingClient12clear_errors
FNDA:8,_RNvMNtNtCs1zQjFe0mrqD_16syncthing_mcp_rs3api6clientNtB2_15SyncThingClient12health_check
FNDA:3,_RNvMNtNtCs1zQjFe0mrqD_16syncthing_mcp_rs3api6clientNtB2_15SyncThingClient12list_devices
FNDA:7,_RNvMNtNtCs1zQjFe0mrqD_16syncthing_mcp_rs3api6clientNtB2_15SyncThingClient12list_folders
FNDA:3,_RNvMNtNtCs1zQjFe0mrqD_16syncthing_mcp_rs3api6clientNtB2_15SyncThingClient12patch_device
FNDA:4,_RNvMNtNtCs1zQjFe0mrqD_16syncthing_mcp_rs3api6clientNtB2_15SyncThingClient12patch_folder
FNDA:2,_RNvMNtNtCs1zQjFe0mrqD_16syncthing_mcp_rs3api6clientNtB2_15SyncThingClient13remove_device
FNDA:3,_RNvMNtNtCs1zQjFe0mrqD_16syncthing_mcp_rs3api6clientNtB2_15SyncThingClient13revert_folder
FNDA:2,_RNvMNtNtCs1zQjFe0mrqD_16syncthing_mcp_rs3api6clientNtB2_15SyncThingClient14get_system_log
FNDA:7,_RNvMNtNtCs1zQjFe0mrqD_16syncthing_mcp_rs3api6clientNtB2_15SyncThingClient15get_connections
FNDA:196,_RNvMNtNtCs1zQjFe0mrqD_16syncthing_mcp_rs3api6clientNtB2_15SyncThingClient15send_with_retry
FNDA:2,_RNvMNtNtCs1zQjFe0mrqD_16syncthing_mcp_rs3api6clientNtB2_15SyncThingClient16get_device_stats
FNDA:3,_RNvMNtNtCs1zQjFe0mrqD_16syncthing_mcp_rs3api6clientNtB2_15SyncThingClient16get_folder_stats
FNDA:6,_RNvMNtNtCs1zQjFe0mrqD_16syncthing_mcp_rs3api6clientNtB2_15SyncThingClient17get_folder_status
FNDA:16,_RNvMNtNtCs1zQjFe0mrqD_16syncthing_mcp_rs3api6clientNtB2_15SyncThingClient17get_system_status
FNDA:12,_RNvMNtNtCs1zQjFe0mrqD_16syncthing_mcp_rs3api6clientNtB2_15SyncThingClient18get_system_version
FNDA:4,_RNvMNtNtCs1zQjFe0mrqD_16syncthing_mcp_rs3api6clientNtB2_15SyncThingClient18validate_device_id
FNDA:3,_RNvMNtNtCs1zQjFe0mrqD_16syncthing_mcp_rs3api6clientNtB2_15SyncThingClient19get_pending_devices
FNDA:3,_RNvMNtNtCs1zQjFe0mrqD_16syncthing_mcp_rs3api6clientNtB2_15SyncThingClient19get_pending_folders
FNDA:2,_RNvMNtNtCs1zQjFe0mrqD_16syncthing_mcp_rs3api6clientNtB2_15SyncThingClient21get_device_completion
FNDA:2,_RNvMNtNtCs1zQjFe0mrqD_16syncthing_mcp_rs3api6clientNtB2_15SyncThingClient21remove_pending_device
FNDA:2,_RNvMNtNtCs1zQjFe0mrqD_16syncthing_mcp_rs3api6clientNtB2_15SyncThingClient21remove_pending_folder
FNDA:211,_RNvMNtNtCs1zQjFe0mrqD_16syncthing_mcp_rs3api6clientNtB2_15SyncThingClient3new
FNDA:2,_RNvMNtNtCs1zQjFe0mrqD_16syncthing_mcp_rs3api6clientNtB2_15SyncThingClient6browse
FNDA:2,_RNvMNtNtCs1zQjFe0mrqD_16syncthing_mcp_rs3api6clientNtB2_15SyncThingClient6rescan
FNDA:2,_RNvMNtNtCs1zQjFe0mrqD_16syncthing_mcp_rs3api6clientNtB2_15SyncThingClient7restart
FNDA:196,_RNvMNtNtCs1zQjFe0mrqD_16syncthing_mcp_rs3api6clientNtB2_15SyncThingClient8add_auth
FNDA:2,_RNvMNtNtCs1zQjFe0mrqD_16syncthing_mcp_rs3api6clientNtB2_15SyncThingClient8shutdown
FNF:74
FNH:72
DA:20,211
DA:21,211
DA:22,211
DA:23,211
DA:24,211
DA:25,211
DA:26,211
DA:27,211
DA:28,211
DA:30,196
DA:31,196
DA:32,77
DA:33,119
DA:34,196
DA:35,196
DA:37,196
DA:38,196
DA:39,196
DA:40,196
DA:41,196
DA:42,196
DA:44,196
DA:45,196
DA:46,196
DA:48,245
DA:49,245
DA:50,0
DA:51,0
DA:52,245
DA:53,245
DA:54,245
DA:56,184
DA:57,6
DA:58,178
DA:60,178
DA:61,245
DA:62,245
DA:63,196
DA:65,178
DA:66,196
DA:69,16
DA:70,16
DA:71,16
DA:72,16
DA:73,16
DA:74,11
DA:75,16
DA:78,12
DA:79,12
DA:80,12
DA:81,12
DA:82,12
DA:83,10
DA:84,12
DA:87,41
DA:88,41
DA:89,41
DA:90,41
DA:91,41
DA:92,41
DA:93,41
DA:96,14
DA:97,14
DA:98,14
DA:99,14
DA:100,14
DA:101,14
DA:102,14
DA:105,7
DA:106,7
DA:107,7
DA:108,7
DA:109,7
DA:110,7
DA:111,7
DA:114,1
DA:115,1
DA:116,1
DA:117,1
DA:118,1
DA:119,1
DA:120,1
DA:122,1
DA:123,1
DA:124,1
DA:125,1
DA:128,12
DA:129,12
DA:130,12
DA:131,12
DA:132,12
DA:133,12
DA:134,12
DA:137,4
DA:138,4
DA:139,4
DA:140,4
DA:141,4
DA:142,4
DA:143,4
DA:146,5
DA:147,5
DA:151,5
DA:152,5
DA:153,5
DA:154,5
DA:155,5
DA:156,5
DA:157,5
DA:160,3
DA:161,3
DA:165,3
DA:166,3
DA:167,3
DA:169,3
DA:170,3
DA:171,3
DA:172,3
DA:173,3
DA:174,3
DA:175,3
DA:178,3
DA:179,3
DA:180,3
DA:181,3
DA:182,3
DA:183,3
DA:184,3
DA:187,3
DA:188,3
DA:189,3
DA:190,3
DA:191,3
DA:192,3
DA:194,3
DA:195,3
DA:196,3
DA:197,3
DA:198,3
DA:199,3
DA:200,3
DA:203,2
DA:204,2
DA:205,2
DA:206,2
DA:207,2
DA:208,2
DA:209,2
DA:212,3
DA:213,3
DA:214,3
DA:215,3
DA:216,3
DA:217,3
DA:218,3
DA:221,4
DA:222,4
DA:223,4
DA:224,4
DA:225,4
DA:226,4
DA:227,4
DA:228,4
DA:229,4
DA:232,6
DA:233,6
DA:234,6
DA:235,6
DA:236,6
DA:237,6
DA:238,6
DA:239,6
DA:240,6
DA:243,2
DA:244,2
DA:245,2
DA:246,2
DA:247,2
DA:248,2
DA:249,2
DA:250,2
DA:251,2
DA:254,2
DA:255,2
DA:256,2
DA:257,2
DA:258,2
DA:259,2
DA:260,2
DA:261,2
DA:262,2
DA:263,2
DA:266,3
DA:267,3
DA:268,3
DA:269,3
DA:270,3
DA:271,3
DA:272,3
DA:273,3
DA:274,3
DA:277,2
DA:278,2
DA:279,2
DA:280,2
DA:281,2
DA:282,2
DA:283,2
DA:286,2
DA:287,2
DA:288,2
DA:289,2
DA:290,2
DA:291,2
DA:292,2
DA:295,2
DA:296,2
DA:297,2
DA:298,2
DA:299,2
DA:300,2
DA:301,2
DA:304,21
DA:305,21
DA:310,21
DA:311,21
DA:313,21
DA:314,21
DA:315,1
DA:316,20
DA:317,21
DA:318,20
DA:319,20
DA:321,21
DA:322,20
DA:323,20
DA:325,21
DA:326,8
DA:327,21
DA:330,2
DA:331,2
DA:332,2
DA:333,2
DA:334,2
DA:335,2
DA:336,2
DA:342,2
DA:343,2
DA:345,2
DA:346,2
DA:347,0
DA:348,2
DA:349,2
DA:350,2
DA:351,2
DA:353,2
DA:355,2
DA:356,2
DA:357,2
DA:360,3
DA:361,3
DA:362,3
DA:363,3
DA:364,3
DA:365,3
DA:366,3
DA:369,2
DA:370,2
DA:371,2
DA:372,2
DA:373,2
DA:374,2
DA:375,2
DA:376,1
DA:377,2
DA:380,3
DA:381,3
DA:382,3
DA:383,3
DA:384,3
DA:385,3
DA:386,3
DA:389,2
DA:390,2
DA:391,2
DA:392,2
DA:393,2
DA:394,2
DA:395,2
DA:396,2
DA:397,2
DA:400,7
DA:401,7
DA:402,7
DA:403,7
DA:404,7
DA:405,7
DA:406,7
DA:409,2
DA:410,2
DA:411,2
DA:412,2
DA:413,2
DA:414,2
DA:415,2
DA:418,2
DA:419,2
DA:420,2
DA:421,2
DA:422,2
DA:423,2
DA:424,2
DA:427,3
DA:428,3
DA:429,3
DA:430,3
DA:431,3
DA:432,3
DA:433,3
DA:436,8
DA:437,8
DA:441,8
DA:442,8
DA:443,8
DA:445,8
DA:447,8
DA:448,6
DA:449,6
DA:450,6
DA:451,6
DA:452,6
DA:453,6
DA:454,6
DA:455,6
DA:456,6
DA:457,2
DA:458,2
DA:459,2
DA:460,2
DA:461,2
DA:462,2
DA:463,2
DA:464,2
DA:465,2
DA:467,8
BRF:0
BRH:0
LF:382
LH:377
end_of_record
SF:/home/nicholas/git/nicholaswilde/syncthing-mcp-rs/src/api/models.rs
FN:174,_RNvMNtNtCsk1nGwz09EVE_16syncthing_mcp_rs3api6modelsNtB2_5Event7summary
FN:174,_RNvMNtNtCs1zQjFe0mrqD_16syncthing_mcp_rs3api6modelsNtB2_5Event7summary
FNDA:0,_RNvMNtNtCsk1nGwz09EVE_16syncthing_mcp_rs3api6modelsNtB2_5Event7summary
FNDA:12,_RNvMNtNtCs1zQjFe0mrqD_16syncthing_mcp_rs3api6modelsNtB2_5Event7summary
FNF:1
FNH:1
DA:174,12
DA:175,11
DA:177,4
DA:179,4
DA:182,3
DA:183,3
DA:184,3
DA:186,3
DA:191,1
DA:192,1
DA:194,1
DA:195,1
DA:198,1
DA:201,3
DA:203,12
BRF:0
BRH:0
LF:15
LH:15
end_of_record
SF:/home/nicholas/git/nicholaswilde/syncthing-mcp-rs/src/config/mod.rs
FN:202,_RINvNtCsk1nGwz09EVE_16syncthing_mcp_rs6config21deserialize_instancesNtNtCsk2UJvGL8Tan_6config5value5ValueEB4_
FN:228,_RINvXNvNtCsk1nGwz09EVE_16syncthing_mcp_rs6config21deserialize_instancesNtB3_16InstancesVisitorNtNtCs8Z3NE6wBbHN_10serde_core2de7Visitor9visit_mapNtNtCsk2UJvGL8Tan_6config2de9MapAccessEB7_
FN:217,_RINvXNvNtCsk1nGwz09EVE_16syncthing_mcp_rs6config21deserialize_instancesNtB3_16InstancesVisitorNtNtCs8Z3NE6wBbHN_10serde_core2de7Visitor9visit_seqNtNtCsk2UJvGL8Tan_6config2de9SeqAccessEB7_
FN:414,_RNCNvMs0_NtCsk1nGwz09EVE_16syncthing_mcp_rs6configNtB7_9AppConfig12get_instance0B9_
FN:425,_RNCNvMs0_NtCsk1nGwz09EVE_16syncthing_mcp_rs6configNtB7_9AppConfig12get_instances0_0B9_
FN:426,_RNCNvMs0_NtCsk1nGwz09EVE_16syncthing_mcp_rs6configNtB7_9AppConfig12get_instances1_0B9_
FN:419,_RNCNvMs0_NtCsk1nGwz09EVE_16syncthing_mcp_rs6configNtB7_9AppConfig12get_instances_0B9_
FN:350,_RNCNvMs0_NtCsk1nGwz09EVE_16syncthing_mcp_rs6configNtB7_9AppConfig4load0B9_
FN:406,_RNvMs0_NtCsk1nGwz09EVE_16syncthing_mcp_rs6configNtB5_9AppConfig12get_instance
FN:257,_RNvMs0_NtCsk1nGwz09EVE_16syncthing_mcp_rs6configNtB5_9AppConfig4load
FN:360,_RNvMs0_NtCsk1nGwz09EVE_16syncthing_mcp_rs6configNtB5_9AppConfig8validate
FN:432,_RNvNtCsk1nGwz09EVE_16syncthing_mcp_rs6config10parse_args
FN:130,_RNvNtCsk1nGwz09EVE_16syncthing_mcp_rs6config17default_log_level
FN:146,_RNvNtCsk1nGwz09EVE_16syncthing_mcp_rs6config17default_timeout_s
FN:126,_RNvNtCsk1nGwz09EVE_16syncthing_mcp_rs6config17default_transport
FN:162,_RNvNtCsk1nGwz09EVE_16syncthing_mcp_rs6config18default_mcp_events
FN:134,_RNvNtCsk1nGwz09EVE_16syncthing_mcp_rs6config21default_no_verify_ssl
FN:154,_RNvNtCsk1nGwz09EVE_16syncthing_mcp_rs6config24default_http_server_host
FN:158,_RNvNtCsk1nGwz09EVE_16syncthing_mcp_rs6config24default_http_server_port
FN:138,_RNvNtCsk1nGwz09EVE_16syncthing_mcp_rs6config26default_retry_max_attempts
FN:150,_RNvNtCsk1nGwz09EVE_16syncthing_mcp_rs6config27default_http_server_enabled
FN:142,_RNvNtCsk1nGwz09EVE_16syncthing_mcp_rs6config32default_retry_initial_backoff_ms
FN:172,_RNvXNtCsk1nGwz09EVE_16syncthing_mcp_rs6configNtB2_16HttpServerConfigNtNtCs8nPosuWgJFh_4core7default7Default7default
FN:213,_RNvXNvNtCsk1nGwz09EVE_16syncthing_mcp_rs6config21deserialize_instancesNtB2_16InstancesVisitorNtNtCs8Z3NE6wBbHN_10serde_core2de7Visitor9expecting
FN:183,_RNvXs_NtCsk1nGwz09EVE_16syncthing_mcp_rs6configNtB4_9AppConfigNtNtCs8nPosuWgJFh_4core7default7Default7default
FN:202,_RINvNtCs1zQjFe0mrqD_16syncthing_mcp_rs6config21deserialize_instancesNtNtCsk2UJvGL8Tan_6config5value5ValueEB4_
FN:228,_RINvXNvNtCs1zQjFe0mrqD_16syncthing_mcp_rs6config21deserialize_instancesNtB3_16InstancesVisitorNtNtCs8Z3NE6wBbHN_10serde_core2de7Visitor9visit_mapNtNtCsk2UJvGL8Tan_6config2de9MapAccessEB7_
FN:217,_RINvXNvNtCs1zQjFe0mrqD_16syncthing_mcp_rs6config21deserialize_instancesNtB3_16InstancesVisitorNtNtCs8Z3NE6wBbHN_10serde_core2de7Visitor9visit_seqNtNtCsk2UJvGL8Tan_6config2de9SeqAccessEB7_
FN:414,_RNCNvMs0_NtCs1zQjFe0mrqD_16syncthing_mcp_rs6configNtB7_9AppConfig12get_instance0B9_
FN:425,_RNCNvMs0_NtCs1zQjFe0mrqD_16syncthing_mcp_rs6configNtB7_9AppConfig12get_instances0_0B9_
FN:426,_RNCNvMs0_NtCs1zQjFe0mrqD_16syncthing_mcp_rs6configNtB7_9AppConfig12get_instances1_0B9_
FN:419,_RNCNvMs0_NtCs1zQjFe0mrqD_16syncthing_mcp_rs6configNtB7_9AppConfig12get_instances_0B9_
FN:350,_RNCNvMs0_NtCs1zQjFe0mrqD_16syncthing_mcp_rs6configNtB7_9AppConfig4load0B9_
FN:406,_RNvMs0_NtCs1zQjFe0mrqD_16syncthing_mcp_rs6configNtB5_9AppConfig12get_instance
FN:257,_RNvMs0_NtCs1zQjFe0mrqD_16syncthing_mcp_rs6configNtB5_9AppConfig4load
FN:360,_RNvMs0_NtCs1zQjFe0mrqD_16syncthing_mcp_rs6configNtB5_9AppConfig8validate
FN:432,_RNvNtCs1zQjFe0mrqD_16syncthing_mcp_rs6config10parse_args
FN:130,_RNvNtCs1zQjFe0mrqD_16syncthing_mcp_rs6config17default_log_level
FN:146,_RNvNtCs1zQjFe0mrqD_16syncthing_mcp_rs6config17default_timeout_s
FN:126,_RNvNtCs1zQjFe0mrqD_16syncthing_mcp_rs6config17default_transport
FN:162,_RNvNtCs1zQjFe0mrqD_16syncthing_mcp_rs6config18default_mcp_events
FN:134,_RNvNtCs1zQjFe0mrqD_16syncthing_mcp_rs6config21default_no_verify_ssl
FN:154,_RNvNtCs1zQjFe0mrqD_16syncthing_mcp_rs6config24default_http_server_host
FN:158,_RNvNtCs1zQjFe0mrqD_16syncthing_mcp_rs6config24default_http_server_port
FN:138,_RNvNtCs1zQjFe0mrqD_16syncthing_mcp_rs6config26default_retry_max_attempts
FN:150,_RNvNtCs1zQjFe0mrqD_16syncthing_mcp_rs6config27default_http_server_enabled
FN:142,_RNvNtCs1zQjFe0mrqD_16syncthing_mcp_rs6config32default_retry_initial_backoff_ms
FN:172,_RNvXNtCs1zQjFe0mrqD_16syncthing_mcp_rs6configNtB2_16HttpServerConfigNtNtCs8nPosuWgJFh_4core7default7Default7default
FN:213,_RNvXNvNtCs1zQjFe0mrqD_16syncthing_mcp_rs6config21deserialize_instancesNtB2_16InstancesVisitorNtNtCs8Z3NE6wBbHN_10serde_core2de7Visitor9expecting
FN:183,_RNvXs_NtCs1zQjFe0mrqD_16syncthing_mcp_rs6configNtB4_9AppConfigNtNtCs8nPosuWgJFh_4core7default7Default7default
FNDA:0,_RINvNtCsk1nGwz09EVE_16syncthing_mcp_rs6config21deserialize_instancesNtNtCsk2UJvGL8Tan_6config5value5ValueEB4_
FNDA:0,_RINvXNvNtCsk1nGwz09EVE_16syncthing_mcp_rs6config21deserialize_instancesNtB3_16InstancesVisitorNtNtCs8Z3NE6wBbHN_10serde_core2de7Visitor9visit_mapNtNtCsk2UJvGL8Tan_6config2de9MapAccessEB7_
FNDA:0,_RINvXNvNtCsk1nGwz09EVE_16syncthing_mcp_rs6config21deserialize_instancesNtB3_16InstancesVisitorNtNtCs8Z3NE6wBbHN_10serde_core2de7Visitor9visit_seqNtNtCsk2UJvGL8Tan_6config2de9SeqAccessEB7_
FNDA:0,_RNCNvMs0_NtCsk1nGwz09EVE_16syncthing_mcp_rs6configNtB7_9AppConfig12get_instance0B9_
FNDA:0,_RNCNvMs0_NtCsk1nGwz09EVE_16syncthing_mcp_rs6configNtB7_9AppConfig12get_instances0_0B9_
FNDA:0,_RNCNvMs0_NtCsk1nGwz09EVE_16syncthing_mcp_rs6configNtB7_9AppConfig12get_instances1_0B9_
FNDA:0,_RNCNvMs0_NtCsk1nGwz09EVE_16syncthing_mcp_rs6configNtB7_9AppConfig12get_instances_0B9_
FNDA:0,_RNCNvMs0_NtCsk1nGwz09EVE_16syncthing_mcp_rs6configNtB7_9AppConfig4load0B9_
FNDA:0,_RNvMs0_NtCsk1nGwz09EVE_16syncthing_mcp_rs6configNtB5_9AppConfig12get_instance
FNDA:0,_RNvMs0_NtCsk1nGwz09EVE_16syncthing_mcp_rs6configNtB5_9AppConfig4load
FNDA:0,_RNvMs0_NtCsk1nGwz09EVE_16syncthing_mcp_rs6configNtB5_9AppConfig8validate
FNDA:0,_RNvNtCsk1nGwz09EVE_16syncthing_mcp_rs6config10parse_args
FNDA:0,_RNvNtCsk1nGwz09EVE_16syncthing_mcp_rs6config17default_log_level
FNDA:0,_RNvNtCsk1nGwz09EVE_16syncthing_mcp_rs6config17default_timeout_s
FNDA:0,_RNvNtCsk1nGwz09EVE_16syncthing_mcp_rs6config17default_transport
FNDA:0,_RNvNtCsk1nGwz09EVE_16syncthing_mcp_rs6config18default_mcp_events
FNDA:0,_RNvNtCsk1nGwz09EVE_16syncthing_mcp_rs6config21default_no_verify_ssl
FNDA:0,_RNvNtCsk1nGwz09EVE_16syncthing_mcp_rs6config24default_http_server_host
FNDA:0,_RNvNtCsk1nGwz09EVE_16syncthing_mcp_rs6config24default_http_server_port
FNDA:0,_RNvNtCsk1nGwz09EVE_16syncthing_mcp_rs6config26default_retry_max_attempts
FNDA:0,_RNvNtCsk1nGwz09EVE_16syncthing_mcp_rs6config27default_http_server_enabled
FNDA:0,_RNvNtCsk1nGwz09EVE_16syncthing_mcp_rs6config32default_retry_initial_backoff_ms
FNDA:0,_RNvXNtCsk1nGwz09EVE_16syncthing_mcp_rs6configNtB2_16HttpServerConfigNtNtCs8nPosuWgJFh_4core7default7Default7default
FNDA:0,_RNvXNvNtCsk1nGwz09EVE_16syncthing_mcp_rs6config21deserialize_instancesNtB2_16InstancesVisitorNtNtCs8Z3NE6wBbHN_10serde_core2de7Visitor9expecting
FNDA:0,_RNvXs_NtCsk1nGwz09EVE_16syncthing_mcp_rs6configNtB4_9AppConfigNtNtCs8nPosuWgJFh_4core7default7Default7default
FNDA:2,_RINvNtCs1zQjFe0mrqD_16syncthing_mcp_rs6config21deserialize_instancesNtNtCsk2UJvGL8Tan_6config5value5ValueEB4_
FNDA:1,_RINvXNvNtCs1zQjFe0mrqD_16syncthing_mcp_rs6config21deserialize_instancesNtB3_16InstancesVisitorNtNtCs8Z3NE6wBbHN_10serde_core2de7Visitor9visit_mapNtNtCsk2UJvGL8Tan_6config2de9MapAccessEB7_
FNDA:1,_RINvXNvNtCs1zQjFe0mrqD_16syncthing_mcp_rs6config21deserialize_instancesNtB3_16InstancesVisitorNtNtCs8Z3NE6wBbHN_10serde_core2de7Visitor9visit_seqNtNtCsk2UJvGL8Tan_6config2de9SeqAccessEB7_
FNDA:0,_RNCNvMs0_NtCs1zQjFe0mrqD_16syncthing_mcp_rs6configNtB7_9AppConfig12get_instance0B9_
FNDA:62,_RNCNvMs0_NtCs1zQjFe0mrqD_16syncthing_mcp_rs6configNtB7_9AppConfig12get_instances0_0B9_
FNDA:6,_RNCNvMs0_NtCs1zQjFe0mrqD_16syncthing_mcp_rs6configNtB7_9AppConfig12get_instances1_0B9_
FNDA:2,_RNCNvMs0_NtCs1zQjFe0mrqD_16syncthing_mcp_rs6configNtB7_9AppConfig12get_instances_0B9_
FNDA:0,_RNCNvMs0_NtCs1zQjFe0mrqD_16syncthing_mcp_rs6configNtB7_9AppConfig4load0B9_
FNDA:103,_RNvMs0_NtCs1zQjFe0mrqD_16syncthing_mcp_rs6configNtB5_9AppConfig12get_instance
FNDA:13,_RNvMs0_NtCs1zQjFe0mrqD_16syncthing_mcp_rs6configNtB5_9AppConfig4load
FNDA:17,_RNvMs0_NtCs1zQjFe0mrqD_16syncthing_mcp_rs6configNtB5_9AppConfig8validate
FNDA:13,_RNvNtCs1zQjFe0mrqD_16syncthing_mcp_rs6config10parse_args
FNDA:0,_RNvNtCs1zQjFe0mrqD_16syncthing_mcp_rs6config17default_log_level
FNDA:0,_RNvNtCs1zQjFe0mrqD_16syncthing_mcp_rs6config17default_timeout_s
FNDA:0,_RNvNtCs1zQjFe0mrqD_16syncthing_mcp_rs6config17default_transport
FNDA:126,_RNvNtCs1zQjFe0mrqD_16syncthing_mcp_rs6config18default_mcp_events
FNDA:0,_RNvNtCs1zQjFe0mrqD_16syncthing_mcp_rs6config21default_no_verify_ssl
FNDA:0,_RNvNtCs1zQjFe0mrqD_16syncthing_mcp_rs6config24default_http_server_host
FNDA:0,_RNvNtCs1zQjFe0mrqD_16syncthing_mcp_rs6config24default_http_server_port
FNDA:0,_RNvNtCs1zQjFe0mrqD_16syncthing_mcp_rs6config26default_retry_max_attempts
FNDA:0,_RNvNtCs1zQjFe0mrqD_16syncthing_mcp_rs6config27default_http_server_enabled
FNDA:0,_RNvNtCs1zQjFe0mrqD_16syncthing_mcp_rs6config32default_retry_initial_backoff_ms
FNDA:115,_RNvXNtCs1zQjFe0mrqD_16syncthing_mcp_rs6configNtB2_16HttpServerConfigNtNtCs8nPosuWgJFh_4core7default7Default7default
FNDA:0,_RNvXNvNtCs1zQjFe0mrqD_16syncthing_mcp_rs6config21deserialize_instancesNtB2_16InstancesVisitorNtNtCs8Z3NE6wBbHN_10serde_core2de7Visitor9expecting
FNDA:115,_RNvXs_NtCs1zQjFe0mrqD_16syncthing_mcp_rs6configNtB4_9AppConfigNtNtCs8nPosuWgJFh_4core7default7Default7default
FNF:25
FNH:13
DA:126,0
DA:127,0
DA:128,0
DA:130,0
DA:131,0
DA:132,0
DA:134,0
DA:135,0
DA:136,0
DA:138,0
DA:139,0
DA:140,0
DA:142,0
DA:143,0
DA:144,0
DA:146,0
DA:147,0
DA:148,0
DA:150,0
DA:151,0
DA:152,0
DA:154,0
DA:155,0
DA:156,0
DA:158,0
DA:159,0
DA:160,0
DA:162,126
DA:163,126
DA:164,126
DA:165,126
DA:166,126
DA:167,126
DA:169,126
DA:172,115
DA:173,115
DA:174,115
DA:175,115
DA:176,115
DA:177,115
DA:178,115
DA:179,115
DA:183,115
DA:184,115
DA:185,115
DA:186,115
DA:187,115
DA:188,115
DA:189,115
DA:190,115
DA:191,115
DA:192,115
DA:193,115
DA:194,115
DA:195,115
DA:196,115
DA:197,115
DA:198,115
DA:199,115
DA:202,2
DA:203,2
DA:204,2
DA:213,0
DA:214,0
DA:215,0
DA:217,1
DA:218,1
DA:219,1
DA:221,1
DA:222,3
DA:223,2
DA:224,2
DA:225,1
DA:226,1
DA:228,1
DA:229,1
DA:230,1
DA:232,1
DA:233,3
DA:234,2
DA:235,2
DA:236,1
DA:237,1
DA:240,2
DA:241,2
DA:257,13
DA:258,13
DA:259,13
DA:260,13
DA:261,13
DA:262,13
DA:264,13
DA:265,2
DA:266,2
DA:267,2
DA:268,2
DA:269,2
DA:270,0
DA:271,0
DA:272,0
DA:274,2
DA:275,11
DA:278,11
DA:279,5
DA:281,6
DA:285,11
DA:286,11
DA:287,11
DA:288,11
DA:289,11
DA:290,11
DA:291,11
DA:292,11
DA:293,11
DA:294,11
DA:295,11
DA:296,11
DA:297,11
DA:300,11
DA:301,5
DA:302,5
DA:303,6
DA:304,6
DA:305,6
DA:306,6
DA:307,6
DA:311,11
DA:312,11
DA:313,11
DA:314,11
DA:315,11
DA:319,11
DA:320,1
DA:321,10
DA:322,11
DA:323,1
DA:324,10
DA:325,11
DA:326,0
DA:327,11
DA:328,11
DA:329,0
DA:330,11
DA:331,11
DA:332,0
DA:333,11
DA:334,11
DA:335,0
DA:336,11
DA:337,11
DA:338,1
DA:339,10
DA:340,11
DA:341,1
DA:342,10
DA:343,11
DA:344,1
DA:345,10
DA:346,11
DA:347,0
DA:348,11
DA:349,11
DA:350,0
DA:351,0
DA:352,11
DA:354,11
DA:355,11
DA:356,11
DA:357,13
DA:360,17
DA:361,17
DA:362,10
DA:363,0
DA:365,10
DA:368,10
DA:369,10
DA:370,10
DA:371,10
DA:372,10
DA:373,10
DA:374,10
DA:375,10
DA:376,10
DA:377,7
DA:379,17
DA:380,2
DA:381,15
DA:383,17
DA:384,17
DA:385,2
DA:386,15
DA:388,15
DA:391,15
DA:392,4
DA:393,11
DA:394,15
DA:395,5
DA:396,10
DA:397,15
DA:398,5
DA:399,10
DA:402,13
DA:403,17
DA:406,103
DA:407,103
DA:408,103
DA:409,103
DA:410,103
DA:411,57
DA:412,57
DA:413,57
DA:414,57
DA:415,46
DA:416,46
DA:417,46
DA:418,46
DA:419,46
DA:421,2
DA:422,44
DA:423,44
DA:424,44
DA:425,62
DA:426,44
DA:429,103
DA:432,13
DA:435,13
DA:436,13
DA:437,13
DA:438,13
DA:439,13
DA:440,13
DA:442,13
DA:443,13
DA:444,13
DA:445,13
DA:446,13
DA:448,13
DA:449,13
DA:450,13
DA:451,13
DA:452,13
DA:453,13
DA:455,13
DA:456,13
DA:457,13
DA:458,13
DA:460,13
DA:461,13
DA:462,13
DA:463,13
DA:465,13
DA:466,13
DA:467,13
DA:468,13
DA:469,13
DA:471,13
DA:472,13
DA:473,13
DA:474,13
DA:476,13
DA:477,13
DA:478,13
DA:479,13
DA:480,13
DA:482,13
DA:483,13
DA:484,13
DA:485,13
DA:487,13
DA:488,13
DA:489,13
DA:490,13
DA:492,13
DA:493,13
DA:494,13
DA:495,13
DA:496,13
DA:498,13
DA:500,13
DA:501,9
DA:503,4
DA:505,13
BRF:0
BRH:0
LF:287
LH:244
end_of_record
SF:/home/nicholas/git/nicholaswilde/syncthing-mcp-rs/src/credentials/mod.rs
FN:103,_RNvNtCsk1nGwz09EVE_16syncthing_mcp_rs11credentials13decrypt_value
FN:84,_RNvNtCsk1nGwz09EVE_16syncthing_mcp_rs11credentials13encrypt_value
FN:59,_RNvNtCsk1nGwz09EVE_16syncthing_mcp_rs11credentials14get_master_key
FN:40,_RNvNtCsk1nGwz09EVE_16syncthing_mcp_rs11credentials15resolve_api_key
FN:18,_RNvXNtCsk1nGwz09EVE_16syncthing_mcp_rs11credentialsNtB2_15KeyringProviderNtB2_18CredentialProvider11get_api_key
FN:132,_RNvNtNtCs1zQjFe0mrqD_16syncthing_mcp_rs11credentials5testss_17test_resolve_none
FN:146,_RNvNtNtCs1zQjFe0mrqD_16syncthing_mcp_rs11credentials5testss_20test_encrypt_decrypt
FN:126,_RNvNtNtCs1zQjFe0mrqD_16syncthing_mcp_rs11credentials5testss_22test_resolve_plain_key
FN:174,_RNvNtNtCs1zQjFe0mrqD_16syncthing_mcp_rs11credentials5testss_32test_decrypt_value_short_payload
FN:180,_RNvNtNtCs1zQjFe0mrqD_16syncthing_mcp_rs11credentials5testss_33test_decrypt_value_invalid_prefix
FN:137,_RNvNtNtCs1zQjFe0mrqD_16syncthing_mcp_rs11credentials5testss_35test_resolve_invalid_keyring_format
FN:103,_RNvNtCs1zQjFe0mrqD_16syncthing_mcp_rs11credentials13decrypt_value
FN:84,_RNvNtCs1zQjFe0mrqD_16syncthing_mcp_rs11credentials13encrypt_value
FN:59,_RNvNtCs1zQjFe0mrqD_16syncthing_mcp_rs11credentials14get_master_key
FN:40,_RNvNtCs1zQjFe0mrqD_16syncthing_mcp_rs11credentials15resolve_api_key
FN:18,_RNvXNtCs1zQjFe0mrqD_16syncthing_mcp_rs11credentialsNtB2_15KeyringProviderNtB2_18CredentialProvider11get_api_key
FNDA:0,_RNvNtCsk1nGwz09EVE_16syncthing_mcp_rs11credentials13decrypt_value
FNDA:0,_RNvNtCsk1nGwz09EVE_16syncthing_mcp_rs11credentials13encrypt_value
FNDA:0,_RNvNtCsk1nGwz09EVE_16syncthing_mcp_rs11credentials14get_master_key
FNDA:0,_RNvNtCsk1nGwz09EVE_16syncthing_mcp_rs11credentials15resolve_api_key
FNDA:0,_RNvXNtCsk1nGwz09EVE_16syncthing_mcp_rs11credentialsNtB2_15KeyringProviderNtB2_18CredentialProvider11get_api_key
FNDA:1,_RNvNtNtCs1zQjFe0mrqD_16syncthing_mcp_rs11credentials5testss_17test_resolve_none
FNDA:1,_RNvNtNtCs1zQjFe0mrqD_16syncthing_mcp_rs11credentials5testss_20test_encrypt_decrypt
FNDA:1,_RNvNtNtCs1zQjFe0mrqD_16syncthing_mcp_rs11credentials5testss_22test_resolve_plain_key
FNDA:1,_RNvNtNtCs1zQjFe0mrqD_16syncthing_mcp_rs11credentials5testss_32test_decrypt_value_short_payload
FNDA:1,_RNvNtNtCs1zQjFe0mrqD_16syncthing_mcp_rs11credentials5testss_33test_decrypt_value_invalid_prefix
FNDA:1,_RNvNtNtCs1zQjFe0mrqD_16syncthing_mcp_rs11credentials5testss_35test_resolve_invalid_keyring_format
FNDA:2,_RNvNtCs1zQjFe0mrqD_16syncthing_mcp_rs11credentials13decrypt_value
FNDA:2,_RNvNtCs1zQjFe0mrqD_16syncthing_mcp_rs11credentials13encrypt_value
FNDA:2,_RNvNtCs1zQjFe0mrqD_16syncthing_mcp_rs11credentials14get_master_key
FNDA:28,_RNvNtCs1zQjFe0mrqD_16syncthing_mcp_rs11credentials15resolve_api_key
FNDA:0,_RNvXNtCs1zQjFe0mrqD_16syncthing_mcp_rs11credentialsNtB2_15KeyringProviderNtB2_18CredentialProvider11get_api_key
FNF:11
FNH:10
DA:18,0
DA:19,0
DA:23,0
DA:24,0
DA:25,0
DA:26,0
DA:27,0
DA:28,0
DA:31,0
DA:32,0
DA:33,0
DA:36,0
DA:40,28
DA:41,23
DA:42,24
DA:43,1
DA:44,1
DA:45,0
DA:46,0
DA:47,0
DA:49,1
DA:50,1
DA:53,23
DA:54,27
DA:56,28
DA:59,2
DA:60,2
DA:61,2
DA:62,0
DA:63,0
DA:64,0
DA:65,0
DA:66,0
DA:67,0
DA:69,0
DA:74,2
DA:75,2
DA:76,2
DA:77,2
DA:78,2
DA:81,2
DA:84,2
DA:85,2
DA:86,2
DA:87,2
DA:89,2
DA:90,2
DA:91,2
DA:93,2
DA:95,2
DA:96,2
DA:97,2
DA:99,2
DA:100,2
DA:103,2
DA:104,2
DA:105,1
DA:106,0
DA:107,0
DA:108,0
DA:110,0
DA:111,0
DA:112,0
DA:114,0
DA:115,0
DA:117,0
DA:118,0
DA:119,2
DA:126,1
DA:127,1
DA:128,1
DA:129,1
DA:132,1
DA:133,1
DA:134,1
DA:137,1
DA:138,1
DA:139,1
DA:140,1
DA:141,1
DA:143,1
DA:146,1
DA:149,1
DA:150,1
DA:151,1
DA:153,1
DA:154,1
DA:155,1
DA:157,1
DA:158,1
DA:159,1
DA:160,1
DA:162,1
DA:165,1
DA:166,1
DA:167,1
DA:168,1
DA:169,1
DA:170,1
DA:171,1
DA:174,1
DA:175,1
DA:176,1
DA:177,1
DA:180,1
DA:181,1
DA:182,1
DA:183,1
BRF:0
BRH:0
LF:108
LH:76
end_of_record
SF:/home/nicholas/git/nicholaswilde/syncthing-mcp-rs/src/error.rs
FN:95,_RNvMs0_NtCsk1nGwz09EVE_16syncthing_mcp_rs5errorNtB5_8Language5parse
FN:140,_RNvMs1_NtCsk1nGwz09EVE_16syncthing_mcp_rs5errorNtB5_5Error11diagnose_en
FN:237,_RNvMs1_NtCsk1nGwz09EVE_16syncthing_mcp_rs5errorNtB5_5Error11diagnose_fr
FN:130,_RNvMs1_NtCsk1nGwz09EVE_16syncthing_mcp_rs5errorNtB5_5Error17diagnose_internal
FN:126,_RNvMs1_NtCsk1nGwz09EVE_16syncthing_mcp_rs5errorNtB5_5Error21diagnose_with_context
FN:121,_RNvMs1_NtCsk1nGwz09EVE_16syncthing_mcp_rs5errorNtB5_5Error22diagnose_with_language
FN:116,_RNvMs1_NtCsk1nGwz09EVE_16syncthing_mcp_rs5errorNtB5_5Error8diagnose
FN:60,_RNvXNtCsk1nGwz09EVE_16syncthing_mcp_rs5errorNtB2_5ErrorINtNtCs8nPosuWgJFh_4core7convert4FromNtNtCsaLxELXSiVyq_7reqwest5error5ErrorE4from
FN:77,_RNvXs_NtCsk1nGwz09EVE_16syncthing_mcp_rs5errorNtB4_5ErrorINtNtCs8nPosuWgJFh_4core7convert4FromNtNtCsj0gLuUEfogP_5alloc6string6StringE4from
FN:95,_RNvMs0_NtCs1zQjFe0mrqD_16syncthing_mcp_rs5errorNtB5_8Language5parse
FN:140,_RNvMs1_NtCs1zQjFe0mrqD_16syncthing_mcp_rs5errorNtB5_5Error11diagnose_en
FN:237,_RNvMs1_NtCs1zQjFe0mrqD_16syncthing_mcp_rs5errorNtB5_5Error11diagnose_fr
FN:130,_RNvMs1_NtCs1zQjFe0mrqD_16syncthing_mcp_rs5errorNtB5_5Error17diagnose_internal
FN:126,_RNvMs1_NtCs1zQjFe0mrqD_16syncthing_mcp_rs5errorNtB5_5Error21diagnose_with_context
FN:121,_RNvMs1_NtCs1zQjFe0mrqD_16syncthing_mcp_rs5errorNtB5_5Error22diagnose_with_language
FN:116,_RNvMs1_NtCs1zQjFe0mrqD_16syncthing_mcp_rs5errorNtB5_5Error8diagnose
FN:60,_RNvXNtCs1zQjFe0mrqD_16syncthing_mcp_rs5errorNtB2_5ErrorINtNtCs8nPosuWgJFh_4core7convert4FromNtNtCsaLxELXSiVyq_7reqwest5error5ErrorE4from
FN:77,_RNvXs_NtCs1zQjFe0mrqD_16syncthing_mcp_rs5errorNtB4_5ErrorINtNtCs8nPosuWgJFh_4core7convert4FromNtNtCsj0gLuUEfogP_5alloc6string6StringE4from
FNDA:0,_RNvMs0_NtCsk1nGwz09EVE_16syncthing_mcp_rs5errorNtB5_8Language5parse
FNDA:0,_RNvMs1_NtCsk1nGwz09EVE_16syncthing_mcp_rs5errorNtB5_5Error11diagnose_en
FNDA:0,_RNvMs1_NtCsk1nGwz09EVE_16syncthing_mcp_rs5errorNtB5_5Error11diagnose_fr
FNDA:0,_RNvMs1_NtCsk1nGwz09EVE_16syncthing_mcp_rs5errorNtB5_5Error17diagnose_internal
FNDA:0,_RNvMs1_NtCsk1nGwz09EVE_16syncthing_mcp_rs5errorNtB5_5Error21diagnose_with_context
FNDA:0,_RNvMs1_NtCsk1nGwz09EVE_16syncthing_mcp_rs5errorNtB5_5Error22diagnose_with_language
FNDA:0,_RNvMs1_NtCsk1nGwz09EVE_16syncthing_mcp_rs5errorNtB5_5Error8diagnose
FNDA:0,_RNvXNtCsk1nGwz09EVE_16syncthing_mcp_rs5errorNtB2_5ErrorINtNtCs8nPosuWgJFh_4core7convert4FromNtNtCsaLxELXSiVyq_7reqwest5error5ErrorE4from
FNDA:0,_RNvXs_NtCsk1nGwz09EVE_16syncthing_mcp_rs5errorNtB4_5ErrorINtNtCs8nPosuWgJFh_4core7convert4FromNtNtCsj0gLuUEfogP_5alloc6string6StringE4from
FNDA:4,_RNvMs0_NtCs1zQjFe0mrqD_16syncthing_mcp_rs5errorNtB5_8Language5parse
FNDA:32,_RNvMs1_NtCs1zQjFe0mrqD_16syncthing_mcp_rs5errorNtB5_5Error11diagnose_en
FNDA:7,_RNvMs1_NtCs1zQjFe0mrqD_16syncthing_mcp_rs5errorNtB5_5Error11diagnose_fr
FNDA:42,_RNvMs1_NtCs1zQjFe0mrqD_16syncthing_mcp_rs5errorNtB5_5Error17diagnose_internal
FNDA:1,_RNvMs1_NtCs1zQjFe0mrqD_16syncthing_mcp_rs5errorNtB5_5Error21diagnose_with_context
FNDA:38,_RNvMs1_NtCs1zQjFe0mrqD_16syncthing_mcp_rs5errorNtB5_5Error22diagnose_with_language
FNDA:31,_RNvMs1_NtCs1zQjFe0mrqD_16syncthing_mcp_rs5errorNtB5_5Error8diagnose
FNDA:73,_RNvXNtCs1zQjFe0mrqD_16syncthing_mcp_rs5errorNtB2_5ErrorINtNtCs8nPosuWgJFh_4core7convert4FromNtNtCsaLxELXSiVyq_7reqwest5error5ErrorE4from
FNDA:2,_RNvXs_NtCs1zQjFe0mrqD_16syncthing_mcp_rs5errorNtB4_5ErrorINtNtCs8nPosuWgJFh_4core7convert4FromNtNtCsj0gLuUEfogP_5alloc6string6StringE4from
FNF:9
FNH:9
DA:60,73
DA:61,73
DA:62,12
DA:63,2
DA:64,1
DA:65,3
DA:66,6
DA:68,61
DA:69,61
DA:71,0
DA:73,73
DA:77,2
DA:78,2
DA:79,2
DA:95,4
DA:96,4
DA:97,4
DA:98,2
DA:100,4
DA:116,31
DA:117,31
DA:118,31
DA:121,38
DA:122,38
DA:123,38
DA:126,1
DA:127,1
DA:128,1
DA:130,42
DA:131,42
DA:132,3
DA:133,39
DA:134,32
DA:135,7
DA:138,42
DA:140,32
DA:141,32
DA:142,5
DA:143,5
DA:144,5
DA:145,5
DA:146,5
DA:147,2
DA:148,2
DA:149,1
DA:151,1
DA:152,1
DA:154,2
DA:155,2
DA:156,2
DA:157,2
DA:158,2
DA:161,7
DA:162,4
DA:163,2
DA:164,4
DA:166,7
DA:167,7
DA:168,7
DA:169,7
DA:170,7
DA:172,5
DA:173,5
DA:174,2
DA:175,2
DA:176,3
DA:177,2
DA:179,1
DA:181,5
DA:182,5
DA:183,5
DA:184,5
DA:185,5
DA:187,10
DA:188,10
DA:189,10
DA:190,2
DA:191,2
DA:192,2
DA:193,2
DA:194,2
DA:195,2
DA:196,8
DA:197,1
DA:198,1
DA:199,1
DA:200,1
DA:201,1
DA:202,1
DA:203,7
DA:204,7
DA:206,2
DA:207,2
DA:208,2
DA:209,2
DA:210,2
DA:211,2
DA:212,2
DA:213,5
DA:214,4
DA:216,2
DA:217,2
DA:218,2
DA:219,2
DA:220,2
DA:222,3
DA:223,3
DA:224,3
DA:225,3
DA:226,3
DA:229,3
DA:230,3
DA:231,3
DA:232,3
DA:233,3
DA:235,32
DA:237,7
DA:238,7
DA:239,2
DA:240,2
DA:241,2
DA:242,2
DA:243,2
DA:244,2
DA:245,1
DA:246,1
DA:247,1
DA:249,0
DA:251,1
DA:252,1
DA:253,1
DA:254,1
DA:255,1
DA:258,1
DA:259,0
DA:260,0
DA:262,0
DA:263,0
DA:266,1
DA:269,1
DA:270,1
DA:271,1
DA:272,1
DA:273,1
DA:274,1
DA:275,1
DA:277,1
DA:278,1
DA:279,1
DA:280,1
DA:281,0
DA:282,0
DA:284,0
DA:286,1
DA:287,1
DA:288,1
DA:289,1
DA:290,1
DA:292,2
DA:293,2
DA:294,1
DA:295,1
DA:296,1
DA:297,1
DA:298,1
DA:299,1
DA:300,0
DA:301,0
DA:302,0
DA:303,0
DA:304,0
DA:305,1
DA:306,1
DA:307,1
DA:308,1
DA:309,1
DA:310,1
DA:312,0
DA:313,0
DA:314,0
DA:315,0
DA:316,0
DA:317,0
DA:320,0
DA:321,0
DA:322,0
DA:323,0
DA:324,0
DA:325,0
DA:327,7
BRF:0
BRH:0
LF:190
LH:164
end_of_record
SF:/home/nicholas/git/nicholaswilde/syncthing-mcp-rs/src/lib.rs
FN:48,_RNvCsk1nGwz09EVE_16syncthing_mcp_rs13run_with_args
FN:111,_RNvCsk1nGwz09EVE_16syncthing_mcp_rs3run
FN:36,_RNvCsk1nGwz09EVE_16syncthing_mcp_rs7version
FN:73,_RNCNCNvCsk1nGwz09EVE_16syncthing_mcp_rs13run_with_args00B5_
FN:88,_RNCNCNvCsk1nGwz09EVE_16syncthing_mcp_rs13run_with_args0s_0B5_
FN:48,_RNCNvCsk1nGwz09EVE_16syncthing_mcp_rs13run_with_args0B3_
FN:111,_RNCNvCsk1nGwz09EVE_16syncthing_mcp_rs3run0B3_
FN:111,_RNvCs1zQjFe0mrqD_16syncthing_mcp_rs3run
FN:136,_RNCNvNtCs1zQjFe0mrqD_16syncthing_mcp_rs5testss_33test_run_with_args_invalid_config0B5_
FN:125,_RNCNvNtCs1zQjFe0mrqD_16syncthing_mcp_rs5testss_40test_run_with_encrypt_exits_successfully0B5_
FN:120,_RNvNtCs1zQjFe0mrqD_16syncthing_mcp_rs5testss_12test_version
FN:136,_RNvNtCs1zQjFe0mrqD_16syncthing_mcp_rs5testss_33test_run_with_args_invalid_config
FN:125,_RNvNtCs1zQjFe0mrqD_16syncthing_mcp_rs5testss_40test_run_with_encrypt_exits_successfully
FN:73,_RNCNCNvCs1zQjFe0mrqD_16syncthing_mcp_rs13run_with_args00B5_
FN:88,_RNCNCNvCs1zQjFe0mrqD_16syncthing_mcp_rs13run_with_args0s_0B5_
FN:48,_RNCNvCs1zQjFe0mrqD_16syncthing_mcp_rs13run_with_args0B3_
FN:111,_RNCNvCs1zQjFe0mrqD_16syncthing_mcp_rs3run0B3_
FN:48,_RNvCs1zQjFe0mrqD_16syncthing_mcp_rs13run_with_args
FN:36,_RNvCs1zQjFe0mrqD_16syncthing_mcp_rs7version
FNDA:0,_RNvCsk1nGwz09EVE_16syncthing_mcp_rs13run_with_args
FNDA:0,_RNvCsk1nGwz09EVE_16syncthing_mcp_rs3run
FNDA:0,_RNvCsk1nGwz09EVE_16syncthing_mcp_rs7version
FNDA:0,_RNCNCNvCsk1nGwz09EVE_16syncthing_mcp_rs13run_with_args00B5_
FNDA:0,_RNCNCNvCsk1nGwz09EVE_16syncthing_mcp_rs13run_with_args0s_0B5_
FNDA:0,_RNCNvCsk1nGwz09EVE_16syncthing_mcp_rs13run_with_args0B3_
FNDA:0,_RNCNvCsk1nGwz09EVE_16syncthing_mcp_rs3run0B3_
FNDA:0,_RNvCs1zQjFe0mrqD_16syncthing_mcp_rs3run
FNDA:1,_RNCNvNtCs1zQjFe0mrqD_16syncthing_mcp_rs5testss_33test_run_with_args_invalid_config0B5_
FNDA:1,_RNCNvNtCs1zQjFe0mrqD_16syncthing_mcp_rs5testss_40test_run_with_encrypt_exits_successfully0B5_
FNDA:1,_RNvNtCs1zQjFe0mrqD_16syncthing_mcp_rs5testss_12test_version
FNDA:1,_RNvNtCs1zQjFe0mrqD_16syncthing_mcp_rs5testss_33test_run_with_args_invalid_config
FNDA:1,_RNvNtCs1zQjFe0mrqD_16syncthing_mcp_rs5testss_40test_run_with_encrypt_exits_successfully
FNDA:0,_RNCNCNvCs1zQjFe0mrqD_16syncthing_mcp_rs13run_with_args00B5_
FNDA:0,_RNCNCNvCs1zQjFe0mrqD_16syncthing_mcp_rs13run_with_args0s_0B5_
FNDA:1,_RNCNvCs1zQjFe0mrqD_16syncthing_mcp_rs13run_with_args0B3_
FNDA:0,_RNCNvCs1zQjFe0mrqD_16syncthing_mcp_rs3run0B3_
FNDA:1,_RNvCs1zQjFe0mrqD_16syncthing_mcp_rs13run_with_args
FNDA:1,_RNvCs1zQjFe0mrqD_16syncthing_mcp_rs7version
FNF:12
FNH:8
DA:36,1
DA:37,1
DA:38,1
DA:48,1
DA:50,1
DA:51,1
DA:52,1
DA:53,1
DA:55,1
DA:58,1
DA:59,0
DA:60,1
DA:62,0
DA:65,0
DA:68,0
DA:71,0
DA:72,0
DA:73,0
DA:74,0
DA:75,0
DA:76,0
DA:77,0
DA:80,0
DA:81,0
DA:82,0
DA:84,0
DA:85,0
DA:88,0
DA:89,0
DA:90,0
DA:91,0
DA:92,0
DA:93,0
DA:94,0
DA:95,0
DA:96,0
DA:99,0
DA:101,0
DA:103,0
DA:104,0
DA:107,0
DA:108,1
DA:111,0
DA:112,0
DA:113,0
DA:120,1
DA:121,1
DA:122,1
DA:125,1
DA:126,1
DA:127,1
DA:128,1
DA:129,1
DA:131,1
DA:132,1
DA:133,1
DA:136,1
DA:137,1
DA:138,1
DA:139,1
DA:140,1
DA:141,1
DA:145,1
BRF:0
BRH:0
LF:75
LH:39
end_of_record
SF:/home/nicholas/git/nicholaswilde/syncthing-mcp-rs/src/main.rs
FN:2,_RNCNvCshEDmw9Ncm4W_16syncthing_mcp_rs4main0B3_
FN:2,_RNvCshEDmw9Ncm4W_16syncthing_mcp_rs4main
FN:9,_RNvNtCshEDmw9Ncm4W_16syncthing_mcp_rs5testss_9test_main
FN:2,_RNCNvCsgjgLwedef3F_16syncthing_mcp_rs4main0B3_
FN:2,_RNvCsgjgLwedef3F_16syncthing_mcp_rs4main
FNDA:0,_RNCNvCshEDmw9Ncm4W_16syncthing_mcp_rs4main0B3_
FNDA:0,_RNvCshEDmw9Ncm4W_16syncthing_mcp_rs4main
FNDA:1,_RNvNtCshEDmw9Ncm4W_16syncthing_mcp_rs5testss_9test_main
FNDA:0,_RNCNvCsgjgLwedef3F_16syncthing_mcp_rs4main0B3_
FNDA:0,_RNvCsgjgLwedef3F_16syncthing_mcp_rs4main
FNF:3
FNH:1
DA:2,0
DA:3,0
DA:4,0
DA:9,1
DA:11,1
BRF:0
BRH:0
LF:7
LH:2
end_of_record
SF:/home/nicholas/git/nicholaswilde/syncthing-mcp-rs/src/mcp/events.rs
FN:22,_RNvMNtNtCsk1nGwz09EVE_16syncthing_mcp_rs3mcp6eventsNtB2_12EventManager3new
FN:31,_RNvMNtNtCsk1nGwz09EVE_16syncthing_mcp_rs3mcp6eventsNtB2_12EventManager3run
FN:37,_RNCNCNvMNtNtCsk1nGwz09EVE_16syncthing_mcp_rs3mcp6eventsNtB6_12EventManager3run00Ba_
FN:40,_RNCNCNvMNtNtCsk1nGwz09EVE_16syncthing_mcp_rs3mcp6eventsNtB6_12EventManager3run0s_0Ba_
FN:31,_RNCNvMNtNtCsk1nGwz09EVE_16syncthing_mcp_rs3mcp6eventsNtB4_12EventManager3run0B8_
FN:37,_RNCNCNvMNtNtCs1zQjFe0mrqD_16syncthing_mcp_rs3mcp6eventsNtB6_12EventManager3run00Ba_
FN:40,_RNCNCNvMNtNtCs1zQjFe0mrqD_16syncthing_mcp_rs3mcp6eventsNtB6_12EventManager3run0s_0Ba_
FN:31,_RNCNvMNtNtCs1zQjFe0mrqD_16syncthing_mcp_rs3mcp6eventsNtB4_12EventManager3run0B8_
FN:22,_RNvMNtNtCs1zQjFe0mrqD_16syncthing_mcp_rs3mcp6eventsNtB2_12EventManager3new
FN:31,_RNvMNtNtCs1zQjFe0mrqD_16syncthing_mcp_rs3mcp6eventsNtB2_12EventManager3run
FNDA:0,_RNvMNtNtCsk1nGwz09EVE_16syncthing_mcp_rs3mcp6eventsNtB2_12EventManager3new
FNDA:0,_RNvMNtNtCsk1nGwz09EVE_16syncthing_mcp_rs3mcp6eventsNtB2_12EventManager3run
FNDA:0,_RNCNCNvMNtNtCsk1nGwz09EVE_16syncthing_mcp_rs3mcp6eventsNtB6_12EventManager3run00Ba_
FNDA:0,_RNCNCNvMNtNtCsk1nGwz09EVE_16syncthing_mcp_rs3mcp6eventsNtB6_12EventManager3run0s_0Ba_
FNDA:0,_RNCNvMNtNtCsk1nGwz09EVE_16syncthing_mcp_rs3mcp6eventsNtB4_12EventManager3run0B8_
FNDA:0,_RNCNCNvMNtNtCs1zQjFe0mrqD_16syncthing_mcp_rs3mcp6eventsNtB6_12EventManager3run00Ba_
FNDA:1,_RNCNCNvMNtNtCs1zQjFe0mrqD_16syncthing_mcp_rs3mcp6eventsNtB6_12EventManager3run0s_0Ba_
FNDA:5,_RNCNvMNtNtCs1zQjFe0mrqD_16syncthing_mcp_rs3mcp6eventsNtB4_12EventManager3run0B8_
FNDA:5,_RNvMNtNtCs1zQjFe0mrqD_16syncthing_mcp_rs3mcp6eventsNtB2_12EventManager3new
FNDA:5,_RNvMNtNtCs1zQjFe0mrqD_16syncthing_mcp_rs3mcp6eventsNtB2_12EventManager3run
FNF:5
FNH:4
DA:22,5
DA:23,5
DA:24,5
DA:25,5
DA:26,5
DA:27,5
DA:28,5
DA:31,5
DA:33,20
DA:34,20
DA:35,20
DA:36,20
DA:37,20
DA:38,20
DA:40,20
DA:41,20
DA:42,7
DA:43,7
DA:45,7
DA:46,6
DA:47,6
DA:48,6
DA:49,6
DA:50,6
DA:51,6
DA:52,6
DA:53,6
DA:54,6
DA:55,6
DA:56,1
DA:57,7
DA:60,13
DA:61,13
DA:69,19
BRF:0
BRH:0
LF:37
LH:36
end_of_record
SF:/home/nicholas/git/nicholaswilde/syncthing-mcp-rs/src/mcp/server.rs
FN:91,_RINvMNtNtCsk1nGwz09EVE_16syncthing_mcp_rs3mcp6serverNtB3_9McpServer3runNtNtNtCs27uKOW8F00Z_5tokio2io5stdin5StdinNtNtB1b_6stdout6StdoutEB7_
FN:100,_RNCINvMNtNtCsk1nGwz09EVE_16syncthing_mcp_rs3mcp6serverNtB5_9McpServer3runNtNtNtCs27uKOW8F00Z_5tokio2io5stdin5StdinNtNtB1d_6stdout6StdoutE0B9_
FN:155,_RNCNCINvMNtNtCsk1nGwz09EVE_16syncthing_mcp_rs3mcp6serverNtB7_9McpServer3runNtNtNtCs27uKOW8F00Z_5tokio2io5stdin5StdinNtNtB1f_6stdout6StdoutE0s_0Bb_
FN:195,_RNCNCNvMNtNtCsk1nGwz09EVE_16syncthing_mcp_rs3mcp6serverNtB6_9McpServer14handle_request00Ba_
FN:202,_RNCNCNvMNtNtCsk1nGwz09EVE_16syncthing_mcp_rs3mcp6serverNtB6_9McpServer14handle_request0s0_0Ba_
FN:207,_RNCNCNvMNtNtCsk1nGwz09EVE_16syncthing_mcp_rs3mcp6serverNtB6_9McpServer14handle_request0s1_0Ba_
FN:208,_RNCNCNvMNtNtCsk1nGwz09EVE_16syncthing_mcp_rs3mcp6serverNtB6_9McpServer14handle_request0s2_0Ba_
FN:216,_RNCNCNvMNtNtCsk1nGwz09EVE_16syncthing_mcp_rs3mcp6serverNtB6_9McpServer14handle_request0s3_0Ba_
FN:196,_RNCNCNvMNtNtCsk1nGwz09EVE_16syncthing_mcp_rs3mcp6serverNtB6_9McpServer14handle_request0s_0Ba_
FN:244,_RNCNCNvNtNtCsk1nGwz09EVE_16syncthing_mcp_rs3mcp6server11sse_handler00B9_
FN:325,_RNCNCNvNtNtCsk1nGwz09EVE_16syncthing_mcp_rs3mcp6server15auth_middleware00B9_
FN:326,_RNCNCNvNtNtCsk1nGwz09EVE_16syncthing_mcp_rs3mcp6server15auth_middleware0s_0B9_
FN:262,_RNCNCNvNtNtCsk1nGwz09EVE_16syncthing_mcp_rs3mcp6server15message_handler00B9_
FN:168,_RNCNvMNtNtCsk1nGwz09EVE_16syncthing_mcp_rs3mcp6serverNtB4_9McpServer14handle_request0B8_
FN:86,_RNCNvMNtNtCsk1nGwz09EVE_16syncthing_mcp_rs3mcp6serverNtB4_9McpServer9run_stdio0B8_
FN:232,_RNCNvNtNtCsk1nGwz09EVE_16syncthing_mcp_rs3mcp6server11sse_handler0B7_
FN:321,_RNCNvNtNtCsk1nGwz09EVE_16syncthing_mcp_rs3mcp6server15auth_middleware0B7_
FN:260,_RNCNvNtNtCsk1nGwz09EVE_16syncthing_mcp_rs3mcp6server15message_handler0B7_
FN:168,_RNvMNtNtCsk1nGwz09EVE_16syncthing_mcp_rs3mcp6serverNtB2_9McpServer14handle_request
FN:54,_RNvMNtNtCsk1nGwz09EVE_16syncthing_mcp_rs3mcp6serverNtB2_9McpServer3new
FN:68,_RNvMNtNtCsk1nGwz09EVE_16syncthing_mcp_rs3mcp6serverNtB2_9McpServer6router
FN:86,_RNvMNtNtCsk1nGwz09EVE_16syncthing_mcp_rs3mcp6serverNtB2_9McpServer9run_stdio
FN:230,_RNvNtNtCsk1nGwz09EVE_16syncthing_mcp_rs3mcp6server11sse_handler
FN:316,_RNvNtNtCsk1nGwz09EVE_16syncthing_mcp_rs3mcp6server15auth_middleware
FN:256,_RNvNtNtCsk1nGwz09EVE_16syncthing_mcp_rs3mcp6server15message_handler
FN:91,_RINvMNtNtCs1zQjFe0mrqD_16syncthing_mcp_rs3mcp6serverNtB3_9McpServer3runNtNtNtCs27uKOW8F00Z_5tokio2io5stdin5StdinNtNtB1b_6stdout6StdoutEB7_
FN:91,_RINvMNtNtCs1zQjFe0mrqD_16syncthing_mcp_rs3mcp6serverNtB3_9McpServer3runNtNtNtNtCs27uKOW8F00Z_5tokio2io4util3mem12DuplexStreamB17_EB7_
FN:91,_RINvMNtNtCs1zQjFe0mrqD_16syncthing_mcp_rs3mcp6serverNtB3_9McpServer3runRShQINtNtCsj0gLuUEfogP_5alloc3vec3VechEEB7_
FN:100,_RNCINvMNtNtCs1zQjFe0mrqD_16syncthing_mcp_rs3mcp6serverNtB5_9McpServer3runNtNtNtCs27uKOW8F00Z_5tokio2io5stdin5StdinNtNtB1d_6stdout6StdoutE0B9_
FN:100,_RNCINvMNtNtCs1zQjFe0mrqD_16syncthing_mcp_rs3mcp6serverNtB5_9McpServer3runNtNtNtNtCs27uKOW8F00Z_5tokio2io4util3mem12DuplexStreamB19_E0B9_
FN:100,_RNCINvMNtNtCs1zQjFe0mrqD_16syncthing_mcp_rs3mcp6serverNtB5_9McpServer3runRShQINtNtCsj0gLuUEfogP_5alloc3vec3VechEE0B9_
FN:155,_RNCNCINvMNtNtCs1zQjFe0mrqD_16syncthing_mcp_rs3mcp6serverNtB7_9McpServer3runNtNtNtCs27uKOW8F00Z_5tokio2io5stdin5StdinNtNtB1f_6stdout6StdoutE0s_0Bb_
FN:155,_RNCNCINvMNtNtCs1zQjFe0mrqD_16syncthing_mcp_rs3mcp6serverNtB7_9McpServer3runNtNtNtNtCs27uKOW8F00Z_5tokio2io4util3mem12DuplexStreamB1b_E0s_0Bb_
FN:155,_RNCNCINvMNtNtCs1zQjFe0mrqD_16syncthing_mcp_rs3mcp6serverNtB7_9McpServer3runRShQINtNtCsj0gLuUEfogP_5alloc3vec3VechEE0s_0Bb_
FN:195,_RNCNCNvMNtNtCs1zQjFe0mrqD_16syncthing_mcp_rs3mcp6serverNtB6_9McpServer14handle_request00Ba_
FN:202,_RNCNCNvMNtNtCs1zQjFe0mrqD_16syncthing_mcp_rs3mcp6serverNtB6_9McpServer14handle_request0s0_0Ba_
FN:207,_RNCNCNvMNtNtCs1zQjFe0mrqD_16syncthing_mcp_rs3mcp6serverNtB6_9McpServer14handle_request0s1_0Ba_
FN:208,_RNCNCNvMNtNtCs1zQjFe0mrqD_16syncthing_mcp_rs3mcp6serverNtB6_9McpServer14handle_request0s2_0Ba_
FN:216,_RNCNCNvMNtNtCs1zQjFe0mrqD_16syncthing_mcp_rs3mcp6serverNtB6_9McpServer14handle_request0s3_0Ba_
FN:196,_RNCNCNvMNtNtCs1zQjFe0mrqD_16syncthing_mcp_rs3mcp6serverNtB6_9McpServer14handle_request0s_0Ba_
FN:244,_RNCNCNvNtNtCs1zQjFe0mrqD_16syncthing_mcp_rs3mcp6server11sse_handler00B9_
FN:325,_RNCNCNvNtNtCs1zQjFe0mrqD_16syncthing_mcp_rs3mcp6server15auth_middleware00B9_
FN:326,_RNCNCNvNtNtCs1zQjFe0mrqD_16syncthing_mcp_rs3mcp6server15auth_middleware0s_0B9_
FN:262,_RNCNCNvNtNtCs1zQjFe0mrqD_16syncthing_mcp_rs3mcp6server15message_handler00B9_
FN:168,_RNCNvMNtNtCs1zQjFe0mrqD_16syncthing_mcp_rs3mcp6serverNtB4_9McpServer14handle_request0B8_
FN:86,_RNCNvMNtNtCs1zQjFe0mrqD_16syncthing_mcp_rs3mcp6serverNtB4_9McpServer9run_stdio0B8_
FN:232,_RNCNvNtNtCs1zQjFe0mrqD_16syncthing_mcp_rs3mcp6server11sse_handler0B7_
FN:321,_RNCNvNtNtCs1zQjFe0mrqD_16syncthing_mcp_rs3mcp6server15auth_middleware0B7_
FN:260,_RNCNvNtNtCs1zQjFe0mrqD_16syncthing_mcp_rs3mcp6server15message_handler0B7_
FN:168,_RNvMNtNtCs1zQjFe0mrqD_16syncthing_mcp_rs3mcp6serverNtB2_9McpServer14handle_request
FN:54,_RNvMNtNtCs1zQjFe0mrqD_16syncthing_mcp_rs3mcp6serverNtB2_9McpServer3new
FN:68,_RNvMNtNtCs1zQjFe0mrqD_16syncthing_mcp_rs3mcp6serverNtB2_9McpServer6router
FN:86,_RNvMNtNtCs1zQjFe0mrqD_16syncthing_mcp_rs3mcp6serverNtB2_9McpServer9run_stdio
FN:230,_RNvNtNtCs1zQjFe0mrqD_16syncthing_mcp_rs3mcp6server11sse_handler
FN:316,_RNvNtNtCs1zQjFe0mrqD_16syncthing_mcp_rs3mcp6server15auth_middleware
FN:256,_RNvNtNtCs1zQjFe0mrqD_16syncthing_mcp_rs3mcp6server15message_handler
FNDA:0,_RINvMNtNtCsk1nGwz09EVE_16syncthing_mcp_rs3mcp6serverNtB3_9McpServer3runNtNtNtCs27uKOW8F00Z_5tokio2io5stdin5StdinNtNtB1b_6stdout6StdoutEB7_
FNDA:0,_RNCINvMNtNtCsk1nGwz09EVE_16syncthing_mcp_rs3mcp6serverNtB5_9McpServer3runNtNtNtCs27uKOW8F00Z_5tokio2io5stdin5StdinNtNtB1d_6stdout6StdoutE0B9_
FNDA:0,_RNCNCINvMNtNtCsk1nGwz09EVE_16syncthing_mcp_rs3mcp6serverNtB7_9McpServer3runNtNtNtCs27uKOW8F00Z_5tokio2io5stdin5StdinNtNtB1f_6stdout6StdoutE0s_0Bb_
FNDA:0,_RNCNCNvMNtNtCsk1nGwz09EVE_16syncthing_mcp_rs3mcp6serverNtB6_9McpServer14handle_request00Ba_
FNDA:0,_RNCNCNvMNtNtCsk1nGwz09EVE_16syncthing_mcp_rs3mcp6serverNtB6_9McpServer14handle_request0s0_0Ba_
FNDA:0,_RNCNCNvMNtNtCsk1nGwz09EVE_16syncthing_mcp_rs3mcp6serverNtB6_9McpServer14handle_request0s1_0Ba_
FNDA:0,_RNCNCNvMNtNtCsk1nGwz09EVE_16syncthing_mcp_rs3mcp6serverNtB6_9McpServer14handle_request0s2_0Ba_
FNDA:0,_RNCNCNvMNtNtCsk1nGwz09EVE_16syncthing_mcp_rs3mcp6serverNtB6_9McpServer14handle_request0s3_0Ba_
FNDA:0,_RNCNCNvMNtNtCsk1nGwz09EVE_16syncthing_mcp_rs3mcp6serverNtB6_9McpServer14handle_request0s_0Ba_
FNDA:0,_RNCNCNvNtNtCsk1nGwz09EVE_16syncthing_mcp_rs3mcp6server11sse_handler00B9_
FNDA:0,_RNCNCNvNtNtCsk1nGwz09EVE_16syncthing_mcp_rs3mcp6server15auth_middleware00B9_
FNDA:0,_RNCNCNvNtNtCsk1nGwz09EVE_16syncthing_mcp_rs3mcp6server15auth_middleware0s_0B9_
FNDA:0,_RNCNCNvNtNtCsk1nGwz09EVE_16syncthing_mcp_rs3mcp6server15message_handler00B9_
FNDA:0,_RNCNvMNtNtCsk1nGwz09EVE_16syncthing_mcp_rs3mcp6serverNtB4_9McpServer14handle_request0B8_
FNDA:0,_RNCNvMNtNtCsk1nGwz09EVE_16syncthing_mcp_rs3mcp6serverNtB4_9McpServer9run_stdio0B8_
FNDA:0,_RNCNvNtNtCsk1nGwz09EVE_16syncthing_mcp_rs3mcp6server11sse_handler0B7_
FNDA:0,_RNCNvNtNtCsk1nGwz09EVE_16syncthing_mcp_rs3mcp6server15auth_middleware0B7_
FNDA:0,_RNCNvNtNtCsk1nGwz09EVE_16syncthing_mcp_rs3mcp6server15message_handler0B7_
FNDA:0,_RNvMNtNtCsk1nGwz09EVE_16syncthing_mcp_rs3mcp6serverNtB2_9McpServer14handle_request
FNDA:0,_RNvMNtNtCsk1nGwz09EVE_16syncthing_mcp_rs3mcp6serverNtB2_9McpServer3new
FNDA:0,_RNvMNtNtCsk1nGwz09EVE_16syncthing_mcp_rs3mcp6serverNtB2_9McpServer6router
FNDA:0,_RNvMNtNtCsk1nGwz09EVE_16syncthing_mcp_rs3mcp6serverNtB2_9McpServer9run_stdio
FNDA:0,_RNvNtNtCsk1nGwz09EVE_16syncthing_mcp_rs3mcp6server11sse_handler
FNDA:0,_RNvNtNtCsk1nGwz09EVE_16syncthing_mcp_rs3mcp6server15auth_middleware
FNDA:0,_RNvNtNtCsk1nGwz09EVE_16syncthing_mcp_rs3mcp6server15message_handler
FNDA:0,_RINvMNtNtCs1zQjFe0mrqD_16syncthing_mcp_rs3mcp6serverNtB3_9McpServer3runNtNtNtCs27uKOW8F00Z_5tokio2io5stdin5StdinNtNtB1b_6stdout6StdoutEB7_
FNDA:2,_RINvMNtNtCs1zQjFe0mrqD_16syncthing_mcp_rs3mcp6serverNtB3_9McpServer3runNtNtNtNtCs27uKOW8F00Z_5tokio2io4util3mem12DuplexStreamB17_EB7_
FNDA:2,_RINvMNtNtCs1zQjFe0mrqD_16syncthing_mcp_rs3mcp6serverNtB3_9McpServer3runRShQINtNtCsj0gLuUEfogP_5alloc3vec3VechEEB7_
FNDA:0,_RNCINvMNtNtCs1zQjFe0mrqD_16syncthing_mcp_rs3mcp6serverNtB5_9McpServer3runNtNtNtCs27uKOW8F00Z_5tokio2io5stdin5StdinNtNtB1d_6stdout6StdoutE0B9_
FNDA:2,_RNCINvMNtNtCs1zQjFe0mrqD_16syncthing_mcp_rs3mcp6serverNtB5_9McpServer3runNtNtNtNtCs27uKOW8F00Z_5tokio2io4util3mem12DuplexStreamB19_E0B9_
FNDA:2,_RNCINvMNtNtCs1zQjFe0mrqD_16syncthing_mcp_rs3mcp6serverNtB5_9McpServer3runRShQINtNtCsj0gLuUEfogP_5alloc3vec3VechEE0B9_
FNDA:0,_RNCNCINvMNtNtCs1zQjFe0mrqD_16syncthing_mcp_rs3mcp6serverNtB7_9McpServer3runNtNtNtCs27uKOW8F00Z_5tokio2io5stdin5StdinNtNtB1f_6stdout6StdoutE0s_0Bb_
FNDA:2,_RNCNCINvMNtNtCs1zQjFe0mrqD_16syncthing_mcp_rs3mcp6serverNtB7_9McpServer3runNtNtNtNtCs27uKOW8F00Z_5tokio2io4util3mem12DuplexStreamB1b_E0s_0Bb_
FNDA:0,_RNCNCINvMNtNtCs1zQjFe0mrqD_16syncthing_mcp_rs3mcp6serverNtB7_9McpServer3runRShQINtNtCsj0gLuUEfogP_5alloc3vec3VechEE0s_0Bb_
FNDA:59,_RNCNCNvMNtNtCs1zQjFe0mrqD_16syncthing_mcp_rs3mcp6serverNtB6_9McpServer14handle_request00Ba_
FNDA:59,_RNCNCNvMNtNtCs1zQjFe0mrqD_16syncthing_mcp_rs3mcp6serverNtB6_9McpServer14handle_request0s0_0Ba_
FNDA:59,_RNCNCNvMNtNtCs1zQjFe0mrqD_16syncthing_mcp_rs3mcp6serverNtB6_9McpServer14handle_request0s1_0Ba_
FNDA:3,_RNCNCNvMNtNtCs1zQjFe0mrqD_16syncthing_mcp_rs3mcp6serverNtB6_9McpServer14handle_request0s2_0Ba_
FNDA:55,_RNCNCNvMNtNtCs1zQjFe0mrqD_16syncthing_mcp_rs3mcp6serverNtB6_9McpServer14handle_request0s3_0Ba_
FNDA:58,_RNCNCNvMNtNtCs1zQjFe0mrqD_16syncthing_mcp_rs3mcp6serverNtB6_9McpServer14handle_request0s_0Ba_
FNDA:1,_RNCNCNvNtNtCs1zQjFe0mrqD_16syncthing_mcp_rs3mcp6server11sse_handler00B9_
FNDA:1,_RNCNCNvNtNtCs1zQjFe0mrqD_16syncthing_mcp_rs3mcp6server15auth_middleware00B9_
FNDA:1,_RNCNCNvNtNtCs1zQjFe0mrqD_16syncthing_mcp_rs3mcp6server15auth_middleware0s_0B9_
FNDA:0,_RNCNCNvNtNtCs1zQjFe0mrqD_16syncthing_mcp_rs3mcp6server15message_handler00B9_
FNDA:65,_RNCNvMNtNtCs1zQjFe0mrqD_16syncthing_mcp_rs3mcp6serverNtB4_9McpServer14handle_request0B8_
FNDA:0,_RNCNvMNtNtCs1zQjFe0mrqD_16syncthing_mcp_rs3mcp6serverNtB4_9McpServer9run_stdio0B8_
FNDA:6,_RNCNvNtNtCs1zQjFe0mrqD_16syncthing_mcp_rs3mcp6server11sse_handler0B7_
FNDA:2,_RNCNvNtNtCs1zQjFe0mrqD_16syncthing_mcp_rs3mcp6server15auth_middleware0B7_
FNDA:3,_RNCNvNtNtCs1zQjFe0mrqD_16syncthing_mcp_rs3mcp6server15message_handler0B7_
FNDA:65,_RNvMNtNtCs1zQjFe0mrqD_16syncthing_mcp_rs3mcp6serverNtB2_9McpServer14handle_request
FNDA:57,_RNvMNtNtCs1zQjFe0mrqD_16syncthing_mcp_rs3mcp6serverNtB2_9McpServer3new
FNDA:7,_RNvMNtNtCs1zQjFe0mrqD_16syncthing_mcp_rs3mcp6serverNtB2_9McpServer6router
FNDA:0,_RNvMNtNtCs1zQjFe0mrqD_16syncthing_mcp_rs3mcp6serverNtB2_9McpServer9run_stdio
FNDA:6,_RNvNtNtCs1zQjFe0mrqD_16syncthing_mcp_rs3mcp6server11sse_handler
FNDA:2,_RNvNtNtCs1zQjFe0mrqD_16syncthing_mcp_rs3mcp6server15auth_middleware
FNDA:3,_RNvNtNtCs1zQjFe0mrqD_16syncthing_mcp_rs3mcp6server15message_handler
FNF:25
FNH:22
DA:54,57
DA:55,57
DA:56,57
DA:57,57
DA:58,57
DA:59,57
DA:60,57
DA:61,57
DA:62,57
DA:63,57
DA:64,57
DA:65,57
DA:68,7
DA:69,7
DA:70,7
DA:71,7
DA:72,7
DA:74,7
DA:75,2
DA:76,2
DA:77,2
DA:81,5
DA:83,7
DA:86,0
DA:87,0
DA:88,0
DA:91,4
DA:92,4
DA:93,4
DA:94,4
DA:95,4
DA:96,4
DA:97,4
DA:98,4
DA:99,4
DA:100,4
DA:101,4
DA:104,7
DA:105,7
DA:106,4
DA:107,4
DA:108,1
DA:109,1
DA:110,0
DA:111,1
DA:113,1
DA:114,1
DA:115,1
DA:116,1
DA:118,1
DA:119,1
DA:120,1
DA:121,1
DA:122,1
DA:123,1
DA:124,1
DA:125,1
DA:126,1
DA:128,0
DA:129,0
DA:130,0
DA:131,0
DA:132,0
DA:133,0
DA:134,0
DA:135,0
DA:139,1
DA:140,1
DA:141,1
DA:142,0
DA:144,3
DA:147,7
DA:148,2
DA:149,2
DA:150,2
DA:151,2
DA:154,2
DA:155,2
DA:156,2
DA:157,0
DA:159,2
DA:160,0
DA:164,3
DA:165,3
DA:168,65
DA:169,65
DA:170,65
DA:171,3
DA:172,3
DA:173,3
DA:174,3
DA:175,3
DA:176,3
DA:177,3
DA:178,3
DA:179,3
DA:180,3
DA:181,3
DA:182,62
DA:183,2
DA:184,2
DA:185,2
DA:187,2
DA:188,2
DA:189,2
DA:191,60
DA:192,59
DA:193,59
DA:194,59
DA:195,59
DA:196,59
DA:197,59
DA:199,59
DA:200,59
DA:201,59
DA:202,59
DA:203,59
DA:205,59
DA:206,59
DA:207,59
DA:208,59
DA:210,59
DA:212,58
DA:214,58
DA:215,58
DA:216,58
DA:219,58
DA:220,55
DA:222,3
DA:225,1
DA:227,65
DA:230,6
DA:231,6
DA:232,6
DA:233,6
DA:234,6
DA:236,6
DA:237,6
DA:239,6
DA:241,6
DA:243,6
DA:244,6
DA:245,1
DA:246,1
DA:247,1
DA:248,6
DA:251,6
DA:253,6
DA:254,6
DA:256,3
DA:257,3
DA:258,3
DA:259,3
DA:260,3
DA:261,3
DA:262,3
DA:263,0
DA:264,0
DA:265,0
DA:266,0
DA:267,0
DA:268,0
DA:270,3
DA:271,3
DA:272,3
DA:273,3
DA:274,3
DA:275,3
DA:277,3
DA:278,2
DA:279,2
DA:280,2
DA:281,2
DA:282,2
DA:283,2
DA:284,2
DA:285,2
DA:287,1
DA:288,1
DA:289,1
DA:290,1
DA:291,1
DA:292,1
DA:293,1
DA:294,1
DA:299,3
DA:301,0
DA:303,0
DA:304,0
DA:307,0
DA:308,0
DA:309,0
DA:310,0
DA:311,0
DA:314,3
DA:316,2
DA:317,2
DA:318,2
DA:319,2
DA:320,2
DA:321,2
DA:322,2
DA:323,2
DA:324,2
DA:325,2
DA:326,2
DA:327,1
DA:328,1
DA:329,1
DA:331,1
DA:332,0
DA:333,0
DA:334,1
DA:336,1
DA:337,1
DA:338,0
DA:339,0
DA:340,1
DA:341,0
DA:343,1
DA:344,2
BRF:0
BRH:0
LF:239
LH:196
end_of_record
SF:/home/nicholas/git/nicholaswilde/syncthing-mcp-rs/src/mcp/types.rs
FN:70,_RNvXNtNtCsk1nGwz09EVE_16syncthing_mcp_rs3mcp5typesNtB2_13ResponseErrorINtNtCs8nPosuWgJFh_4core7convert4FromNtNtB6_5error5ErrorE4from
FN:70,_RNvXNtNtCs1zQjFe0mrqD_16syncthing_mcp_rs3mcp5typesNtB2_13ResponseErrorINtNtCs8nPosuWgJFh_4core7convert4FromNtNtB6_5error5ErrorE4from
FNDA:0,_RNvXNtNtCsk1nGwz09EVE_16syncthing_mcp_rs3mcp5typesNtB2_13ResponseErrorINtNtCs8nPosuWgJFh_4core7convert4FromNtNtB6_5error5ErrorE4from
FNDA:13,_RNvXNtNtCs1zQjFe0mrqD_16syncthing_mcp_rs3mcp5typesNtB2_13ResponseErrorINtNtCs8nPosuWgJFh_4core7convert4FromNtNtB6_5error5ErrorE4from
FNF:1
FNH:1
DA:70,13
DA:72,13
DA:73,13
DA:74,3
DA:75,1
DA:76,2
DA:77,2
DA:78,2
DA:79,1
DA:80,1
DA:81,1
DA:82,1
DA:84,1
DA:89,13
DA:90,1
DA:92,12
DA:95,13
DA:96,13
DA:97,13
DA:98,13
DA:99,13
DA:100,13
BRF:0
BRH:0
LF:22
LH:22
end_of_record
SF:/home/nicholas/git/nicholaswilde/syncthing-mcp-rs/src/tools/bandwidth.rs
FN:21,_RNvMNtNtCsk1nGwz09EVE_16syncthing_mcp_rs5tools9bandwidthNtB2_14ProfileManager13apply_profile
FN:28,_RNvMNtNtCsk1nGwz09EVE_16syncthing_mcp_rs5tools9bandwidthNtB2_14ProfileManager24get_scheduled_profile_at
FN:15,_RNvMNtNtCsk1nGwz09EVE_16syncthing_mcp_rs5tools9bandwidthNtB2_14ProfileManager3new
FN:79,_RNvMs0_NtNtCsk1nGwz09EVE_16syncthing_mcp_rs5tools9bandwidthNtB5_19BandwidthController23update_bandwidth_limits
FN:60,_RNvMs0_NtNtCsk1nGwz09EVE_16syncthing_mcp_rs5tools9bandwidthNtB5_19BandwidthController29set_instance_bandwidth_limits
FN:55,_RNvMs0_NtNtCsk1nGwz09EVE_16syncthing_mcp_rs5tools9bandwidthNtB5_19BandwidthController3new
FN:160,_RNvNtNtCsk1nGwz09EVE_16syncthing_mcp_rs5tools9bandwidth20get_bandwidth_status
FN:109,_RNvNtNtCsk1nGwz09EVE_16syncthing_mcp_rs5tools9bandwidth20set_bandwidth_limits
FN:131,_RNvNtNtCsk1nGwz09EVE_16syncthing_mcp_rs5tools9bandwidth23set_performance_profile
FN:48,_RNvXs_NtNtCsk1nGwz09EVE_16syncthing_mcp_rs5tools9bandwidthNtB4_19BandwidthControllerNtNtCs8nPosuWgJFh_4core7default7Default7default
FN:89,_RNCNCNvMs0_NtNtCsk1nGwz09EVE_16syncthing_mcp_rs5tools9bandwidthNtB9_19BandwidthController23update_bandwidth_limits00Bd_
FN:171,_RNCNCNvNtNtCsk1nGwz09EVE_16syncthing_mcp_rs5tools9bandwidth20get_bandwidth_status00B9_
FN:184,_RNCNCNvNtNtCsk1nGwz09EVE_16syncthing_mcp_rs5tools9bandwidth20get_bandwidth_status0s0_0B9_
FN:179,_RNCNCNvNtNtCsk1nGwz09EVE_16syncthing_mcp_rs5tools9bandwidth20get_bandwidth_status0s_0B9_
FN:115,_RNCNCNvNtNtCsk1nGwz09EVE_16syncthing_mcp_rs5tools9bandwidth20set_bandwidth_limits00B9_
FN:138,_RNCNCNvNtNtCsk1nGwz09EVE_16syncthing_mcp_rs5tools9bandwidth23set_performance_profile00B9_
FN:144,_RNCNCNvNtNtCsk1nGwz09EVE_16syncthing_mcp_rs5tools9bandwidth23set_performance_profile0s0_0B9_
FN:139,_RNCNCNvNtNtCsk1nGwz09EVE_16syncthing_mcp_rs5tools9bandwidth23set_performance_profile0s_0B9_
FN:22,_RNCNvMNtNtCsk1nGwz09EVE_16syncthing_mcp_rs5tools9bandwidthNtB4_14ProfileManager13apply_profile0B8_
FN:84,_RNCNvMs0_NtNtCsk1nGwz09EVE_16syncthing_mcp_rs5tools9bandwidthNtB7_19BandwidthController23update_bandwidth_limits0Bb_
FN:64,_RNCNvMs0_NtNtCsk1nGwz09EVE_16syncthing_mcp_rs5tools9bandwidthNtB7_19BandwidthController29set_instance_bandwidth_limits0Bb_
FN:164,_RNCNvNtNtCsk1nGwz09EVE_16syncthing_mcp_rs5tools9bandwidth20get_bandwidth_status0B7_
FN:113,_RNCNvNtNtCsk1nGwz09EVE_16syncthing_mcp_rs5tools9bandwidth20set_bandwidth_limits0B7_
FN:135,_RNCNvNtNtCsk1nGwz09EVE_16syncthing_mcp_rs5tools9bandwidth23set_performance_profile0B7_
FN:48,_RNvXs_NtNtCs1zQjFe0mrqD_16syncthing_mcp_rs5tools9bandwidthNtB4_19BandwidthControllerNtNtCs8nPosuWgJFh_4core7default7Default7default
FN:21,_RNvMNtNtCs1zQjFe0mrqD_16syncthing_mcp_rs5tools9bandwidthNtB2_14ProfileManager13apply_profile
FN:28,_RNvMNtNtCs1zQjFe0mrqD_16syncthing_mcp_rs5tools9bandwidthNtB2_14ProfileManager24get_scheduled_profile_at
FN:15,_RNvMNtNtCs1zQjFe0mrqD_16syncthing_mcp_rs5tools9bandwidthNtB2_14ProfileManager3new
FN:79,_RNvMs0_NtNtCs1zQjFe0mrqD_16syncthing_mcp_rs5tools9bandwidthNtB5_19BandwidthController23update_bandwidth_limits
FN:60,_RNvMs0_NtNtCs1zQjFe0mrqD_16syncthing_mcp_rs5tools9bandwidthNtB5_19BandwidthController29set_instance_bandwidth_limits
FN:55,_RNvMs0_NtNtCs1zQjFe0mrqD_16syncthing_mcp_rs5tools9bandwidthNtB5_19BandwidthController3new
FN:160,_RNvNtNtCs1zQjFe0mrqD_16syncthing_mcp_rs5tools9bandwidth20get_bandwidth_status
FN:109,_RNvNtNtCs1zQjFe0mrqD_16syncthing_mcp_rs5tools9bandwidth20set_bandwidth_limits
FN:131,_RNvNtNtCs1zQjFe0mrqD_16syncthing_mcp_rs5tools9bandwidth23set_performance_profile
FN:89,_RNCNCNvMs0_NtNtCs1zQjFe0mrqD_16syncthing_mcp_rs5tools9bandwidthNtB9_19BandwidthController23update_bandwidth_limits00Bd_
FN:171,_RNCNCNvNtNtCs1zQjFe0mrqD_16syncthing_mcp_rs5tools9bandwidth20get_bandwidth_status00B9_
FN:184,_RNCNCNvNtNtCs1zQjFe0mrqD_16syncthing_mcp_rs5tools9bandwidth20get_bandwidth_status0s0_0B9_
FN:179,_RNCNCNvNtNtCs1zQjFe0mrqD_16syncthing_mcp_rs5tools9bandwidth20get_bandwidth_status0s_0B9_
FN:115,_RNCNCNvNtNtCs1zQjFe0mrqD_16syncthing_mcp_rs5tools9bandwidth20set_bandwidth_limits00B9_
FN:138,_RNCNCNvNtNtCs1zQjFe0mrqD_16syncthing_mcp_rs5tools9bandwidth23set_performance_profile00B9_
FN:144,_RNCNCNvNtNtCs1zQjFe0mrqD_16syncthing_mcp_rs5tools9bandwidth23set_performance_profile0s0_0B9_
FN:139,_RNCNCNvNtNtCs1zQjFe0mrqD_16syncthing_mcp_rs5tools9bandwidth23set_performance_profile0s_0B9_
FN:22,_RNCNvMNtNtCs1zQjFe0mrqD_16syncthing_mcp_rs5tools9bandwidthNtB4_14ProfileManager13apply_profile0B8_
FN:84,_RNCNvMs0_NtNtCs1zQjFe0mrqD_16syncthing_mcp_rs5tools9bandwidthNtB7_19BandwidthController23update_bandwidth_limits0Bb_
FN:64,_RNCNvMs0_NtNtCs1zQjFe0mrqD_16syncthing_mcp_rs5tools9bandwidthNtB7_19BandwidthController29set_instance_bandwidth_limits0Bb_
FN:164,_RNCNvNtNtCs1zQjFe0mrqD_16syncthing_mcp_rs5tools9bandwidth20get_bandwidth_status0B7_
FN:113,_RNCNvNtNtCs1zQjFe0mrqD_16syncthing_mcp_rs5tools9bandwidth20set_bandwidth_limits0B7_
FN:135,_RNCNvNtNtCs1zQjFe0mrqD_16syncthing_mcp_rs5tools9bandwidth23set_performance_profile0B7_
FNDA:0,_RNvMNtNtCsk1nGwz09EVE_16syncthing_mcp_rs5tools9bandwidthNtB2_14ProfileManager13apply_profile
FNDA:0,_RNvMNtNtCsk1nGwz09EVE_16syncthing_mcp_rs5tools9bandwidthNtB2_14ProfileManager24get_scheduled_profile_at
FNDA:0,_RNvMNtNtCsk1nGwz09EVE_16syncthing_mcp_rs5tools9bandwidthNtB2_14ProfileManager3new
FNDA:0,_RNvMs0_NtNtCsk1nGwz09EVE_16syncthing_mcp_rs5tools9bandwidthNtB5_19BandwidthController23update_bandwidth_limits
FNDA:0,_RNvMs0_NtNtCsk1nGwz09EVE_16syncthing_mcp_rs5tools9bandwidthNtB5_19BandwidthController29set_instance_bandwidth_limits
FNDA:0,_RNvMs0_NtNtCsk1nGwz09EVE_16syncthing_mcp_rs5tools9bandwidthNtB5_19BandwidthController3new
FNDA:0,_RNvNtNtCsk1nGwz09EVE_16syncthing_mcp_rs5tools9bandwidth20get_bandwidth_status
FNDA:0,_RNvNtNtCsk1nGwz09EVE_16syncthing_mcp_rs5tools9bandwidth20set_bandwidth_limits
FNDA:0,_RNvNtNtCsk1nGwz09EVE_16syncthing_mcp_rs5tools9bandwidth23set_performance_profile
FNDA:0,_RNvXs_NtNtCsk1nGwz09EVE_16syncthing_mcp_rs5tools9bandwidthNtB4_19BandwidthControllerNtNtCs8nPosuWgJFh_4core7default7Default7default
FNDA:0,_RNCNCNvMs0_NtNtCsk1nGwz09EVE_16syncthing_mcp_rs5tools9bandwidthNtB9_19BandwidthController23update_bandwidth_limits00Bd_
FNDA:0,_RNCNCNvNtNtCsk1nGwz09EVE_16syncthing_mcp_rs5tools9bandwidth20get_bandwidth_status00B9_
FNDA:0,_RNCNCNvNtNtCsk1nGwz09EVE_16syncthing_mcp_rs5tools9bandwidth20get_bandwidth_status0s0_0B9_
FNDA:0,_RNCNCNvNtNtCsk1nGwz09EVE_16syncthing_mcp_rs5tools9bandwidth20get_bandwidth_status0s_0B9_
FNDA:0,_RNCNCNvNtNtCsk1nGwz09EVE_16syncthing_mcp_rs5tools9bandwidth20set_bandwidth_limits00B9_
FNDA:0,_RNCNCNvNtNtCsk1nGwz09EVE_16syncthing_mcp_rs5tools9bandwidth23set_performance_profile00B9_
FNDA:0,_RNCNCNvNtNtCsk1nGwz09EVE_16syncthing_mcp_rs5tools9bandwidth23set_performance_profile0s0_0B9_
FNDA:0,_RNCNCNvNtNtCsk1nGwz09EVE_16syncthing_mcp_rs5tools9bandwidth23set_performance_profile0s_0B9_
FNDA:0,_RNCNvMNtNtCsk1nGwz09EVE_16syncthing_mcp_rs5tools9bandwidthNtB4_14ProfileManager13apply_profile0B8_
FNDA:0,_RNCNvMs0_NtNtCsk1nGwz09EVE_16syncthing_mcp_rs5tools9bandwidthNtB7_19BandwidthController23update_bandwidth_limits0Bb_
FNDA:0,_RNCNvMs0_NtNtCsk1nGwz09EVE_16syncthing_mcp_rs5tools9bandwidthNtB7_19BandwidthController29set_instance_bandwidth_limits0Bb_
FNDA:0,_RNCNvNtNtCsk1nGwz09EVE_16syncthing_mcp_rs5tools9bandwidth20get_bandwidth_status0B7_
FNDA:0,_RNCNvNtNtCsk1nGwz09EVE_16syncthing_mcp_rs5tools9bandwidth20set_bandwidth_limits0B7_
FNDA:0,_RNCNvNtNtCsk1nGwz09EVE_16syncthing_mcp_rs5tools9bandwidth23set_performance_profile0B7_
FNDA:0,_RNvXs_NtNtCs1zQjFe0mrqD_16syncthing_mcp_rs5tools9bandwidthNtB4_19BandwidthControllerNtNtCs8nPosuWgJFh_4core7default7Default7default
FNDA:4,_RNvMNtNtCs1zQjFe0mrqD_16syncthing_mcp_rs5tools9bandwidthNtB2_14ProfileManager13apply_profile
FNDA:3,_RNvMNtNtCs1zQjFe0mrqD_16syncthing_mcp_rs5tools9bandwidthNtB2_14ProfileManager24get_scheduled_profile_at
FNDA:3,_RNvMNtNtCs1zQjFe0mrqD_16syncthing_mcp_rs5tools9bandwidthNtB2_14ProfileManager3new
FNDA:3,_RNvMs0_NtNtCs1zQjFe0mrqD_16syncthing_mcp_rs5tools9bandwidthNtB5_19BandwidthController23update_bandwidth_limits
FNDA:5,_RNvMs0_NtNtCs1zQjFe0mrqD_16syncthing_mcp_rs5tools9bandwidthNtB5_19BandwidthController29set_instance_bandwidth_limits
FNDA:4,_RNvMs0_NtNtCs1zQjFe0mrqD_16syncthing_mcp_rs5tools9bandwidthNtB5_19BandwidthController3new
FNDA:1,_RNvNtNtCs1zQjFe0mrqD_16syncthing_mcp_rs5tools9bandwidth20get_bandwidth_status
FNDA:1,_RNvNtNtCs1zQjFe0mrqD_16syncthing_mcp_rs5tools9bandwidth20set_bandwidth_limits
FNDA:1,_RNvNtNtCs1zQjFe0mrqD_16syncthing_mcp_rs5tools9bandwidth23set_performance_profile
FNDA:0,_RNCNCNvMs0_NtNtCs1zQjFe0mrqD_16syncthing_mcp_rs5tools9bandwidthNtB9_19BandwidthController23update_bandwidth_limits00Bd_
FNDA:0,_RNCNCNvNtNtCs1zQjFe0mrqD_16syncthing_mcp_rs5tools9bandwidth20get_bandwidth_status00B9_
FNDA:1,_RNCNCNvNtNtCs1zQjFe0mrqD_16syncthing_mcp_rs5tools9bandwidth20get_bandwidth_status0s0_0B9_
FNDA:1,_RNCNCNvNtNtCs1zQjFe0mrqD_16syncthing_mcp_rs5tools9bandwidth20get_bandwidth_status0s_0B9_
FNDA:0,_RNCNCNvNtNtCs1zQjFe0mrqD_16syncthing_mcp_rs5tools9bandwidth20set_bandwidth_limits00B9_
FNDA:1,_RNCNCNvNtNtCs1zQjFe0mrqD_16syncthing_mcp_rs5tools9bandwidth23set_performance_profile00B9_
FNDA:0,_RNCNCNvNtNtCs1zQjFe0mrqD_16syncthing_mcp_rs5tools9bandwidth23set_performance_profile0s0_0B9_
FNDA:0,_RNCNCNvNtNtCs1zQjFe0mrqD_16syncthing_mcp_rs5tools9bandwidth23set_performance_profile0s_0B9_
FNDA:6,_RNCNvMNtNtCs1zQjFe0mrqD_16syncthing_mcp_rs5tools9bandwidthNtB4_14ProfileManager13apply_profile0B8_
FNDA:3,_RNCNvMs0_NtNtCs1zQjFe0mrqD_16syncthing_mcp_rs5tools9bandwidthNtB7_19BandwidthController23update_bandwidth_limits0Bb_
FNDA:5,_RNCNvMs0_NtNtCs1zQjFe0mrqD_16syncthing_mcp_rs5tools9bandwidthNtB7_19BandwidthController29set_instance_bandwidth_limits0Bb_
FNDA:1,_RNCNvNtNtCs1zQjFe0mrqD_16syncthing_mcp_rs5tools9bandwidth20get_bandwidth_status0B7_
FNDA:1,_RNCNvNtNtCs1zQjFe0mrqD_16syncthing_mcp_rs5tools9bandwidth20set_bandwidth_limits0B7_
FNDA:1,_RNCNvNtNtCs1zQjFe0mrqD_16syncthing_mcp_rs5tools9bandwidth23set_performance_profile0B7_
FNF:24
FNH:18
DA:15,3
DA:16,3
DA:17,3
DA:21,4
DA:22,6
DA:23,3
DA:24,3
DA:25,4
DA:28,3
DA:29,3
DA:30,3
DA:32,3
DA:33,3
DA:34,2
DA:35,1
DA:37,1
DA:38,2
DA:40,2
DA:41,3
DA:48,0
DA:49,0
DA:50,0
DA:55,4
DA:56,4
DA:57,4
DA:60,5
DA:61,5
DA:62,5
DA:63,5
DA:64,5
DA:65,5
DA:67,5
DA:68,5
DA:69,5
DA:70,5
DA:71,5
DA:72,5
DA:74,5
DA:75,5
DA:76,5
DA:79,3
DA:80,3
DA:81,3
DA:82,3
DA:83,3
DA:84,3
DA:85,4
DA:86,4
DA:87,4
DA:88,4
DA:89,4
DA:92,4
DA:93,0
DA:94,0
DA:96,0
DA:97,4
DA:99,4
DA:100,4
DA:101,4
DA:104,3
DA:105,3
DA:109,1
DA:110,1
DA:111,1
DA:112,1
DA:113,1
DA:114,1
DA:115,1
DA:117,1
DA:118,1
DA:119,1
DA:120,1
DA:122,1
DA:123,1
DA:124,1
DA:125,1
DA:126,1
DA:127,1
DA:128,1
DA:131,1
DA:132,1
DA:133,1
DA:134,1
DA:135,1
DA:136,1
DA:137,1
DA:138,1
DA:139,1
DA:141,1
DA:142,1
DA:143,1
DA:144,1
DA:146,1
DA:147,1
DA:148,1
DA:149,1
DA:151,1
DA:152,1
DA:153,1
DA:154,1
DA:155,1
DA:156,1
DA:157,1
DA:160,1
DA:161,1
DA:162,1
DA:163,1
DA:164,1
DA:165,1
DA:167,1
DA:168,1
DA:169,1
DA:170,1
DA:171,1
DA:173,1
DA:174,1
DA:176,1
DA:177,1
DA:178,1
DA:179,1
DA:180,1
DA:181,1
DA:182,1
DA:183,1
DA:184,1
DA:185,1
DA:187,1
DA:190,1
DA:191,0
DA:193,1
DA:195,1
DA:196,0
DA:198,1
DA:203,1
DA:204,1
DA:205,1
DA:207,1
DA:208,1
DA:209,1
DA:210,1
DA:211,1
DA:212,1
DA:213,1
BRF:0
BRH:0
LF:157
LH:144
end_of_record
SF:/home/nicholas/git/nicholaswilde/syncthing-mcp-rs/src/tools/browser.rs
FN:14,_RNCNCNvNtNtCsk1nGwz09EVE_16syncthing_mcp_rs5tools7browser13browse_folder00B9_
FN:17,_RNCNCNvNtNtCsk1nGwz09EVE_16syncthing_mcp_rs5tools7browser13browse_folder0s0_0B9_
FN:20,_RNCNCNvNtNtCsk1nGwz09EVE_16syncthing_mcp_rs5tools7browser13browse_folder0s1_0B9_
FN:21,_RNCNCNvNtNtCsk1nGwz09EVE_16syncthing_mcp_rs5tools7browser13browse_folder0s2_0B9_
FN:15,_RNCNCNvNtNtCsk1nGwz09EVE_16syncthing_mcp_rs5tools7browser13browse_folder0s_0B9_
FN:11,_RNCNvNtNtCsk1nGwz09EVE_16syncthing_mcp_rs5tools7browser13browse_folder0B7_
FN:7,_RNvNtNtCsk1nGwz09EVE_16syncthing_mcp_rs5tools7browser13browse_folder
FN:7,_RNvNtNtCs1zQjFe0mrqD_16syncthing_mcp_rs5tools7browser13browse_folder
FN:14,_RNCNCNvNtNtCs1zQjFe0mrqD_16syncthing_mcp_rs5tools7browser13browse_folder00B9_
FN:17,_RNCNCNvNtNtCs1zQjFe0mrqD_16syncthing_mcp_rs5tools7browser13browse_folder0s0_0B9_
FN:20,_RNCNCNvNtNtCs1zQjFe0mrqD_16syncthing_mcp_rs5tools7browser13browse_folder0s1_0B9_
FN:21,_RNCNCNvNtNtCs1zQjFe0mrqD_16syncthing_mcp_rs5tools7browser13browse_folder0s2_0B9_
FN:15,_RNCNCNvNtNtCs1zQjFe0mrqD_16syncthing_mcp_rs5tools7browser13browse_folder0s_0B9_
FN:11,_RNCNvNtNtCs1zQjFe0mrqD_16syncthing_mcp_rs5tools7browser13browse_folder0B7_
FNDA:0,_RNCNCNvNtNtCsk1nGwz09EVE_16syncthing_mcp_rs5tools7browser13browse_folder00B9_
FNDA:0,_RNCNCNvNtNtCsk1nGwz09EVE_16syncthing_mcp_rs5tools7browser13browse_folder0s0_0B9_
FNDA:0,_RNCNCNvNtNtCsk1nGwz09EVE_16syncthing_mcp_rs5tools7browser13browse_folder0s1_0B9_
FNDA:0,_RNCNCNvNtNtCsk1nGwz09EVE_16syncthing_mcp_rs5tools7browser13browse_folder0s2_0B9_
FNDA:0,_RNCNCNvNtNtCsk1nGwz09EVE_16syncthing_mcp_rs5tools7browser13browse_folder0s_0B9_
FNDA:0,_RNCNvNtNtCsk1nGwz09EVE_16syncthing_mcp_rs5tools7browser13browse_folder0B7_
FNDA:0,_RNvNtNtCsk1nGwz09EVE_16syncthing_mcp_rs5tools7browser13browse_folder
FNDA:2,_RNvNtNtCs1zQjFe0mrqD_16syncthing_mcp_rs5tools7browser13browse_folder
FNDA:1,_RNCNCNvNtNtCs1zQjFe0mrqD_16syncthing_mcp_rs5tools7browser13browse_folder00B9_
FNDA:0,_RNCNCNvNtNtCs1zQjFe0mrqD_16syncthing_mcp_rs5tools7browser13browse_folder0s0_0B9_
FNDA:1,_RNCNCNvNtNtCs1zQjFe0mrqD_16syncthing_mcp_rs5tools7browser13browse_folder0s1_0B9_
FNDA:1,_RNCNCNvNtNtCs1zQjFe0mrqD_16syncthing_mcp_rs5tools7browser13browse_folder0s2_0B9_
FNDA:1,_RNCNCNvNtNtCs1zQjFe0mrqD_16syncthing_mcp_rs5tools7browser13browse_folder0s_0B9_
FNDA:2,_RNCNvNtNtCs1zQjFe0mrqD_16syncthing_mcp_rs5tools7browser13browse_folder0B7_
FNF:7
FNH:6
DA:7,2
DA:8,2
DA:9,2
DA:10,2
DA:11,2
DA:12,2
DA:13,2
DA:14,2
DA:15,2
DA:17,1
DA:18,1
DA:19,1
DA:20,1
DA:21,1
DA:23,1
DA:25,1
DA:26,2
BRF:0
BRH:0
LF:23
LH:22
end_of_record
SF:/home/nicholas/git/nicholaswilde/syncthing-mcp-rs/src/tools/config.rs
FN:13,_RNCNCNvNtNtCsk1nGwz09EVE_16syncthing_mcp_rs5tools6config16replicate_config00B9_
FN:17,_RNCNCNvNtNtCsk1nGwz09EVE_16syncthing_mcp_rs5tools6config16replicate_config0s0_0B9_
FN:20,_RNCNCNvNtNtCsk1nGwz09EVE_16syncthing_mcp_rs5tools6config16replicate_config0s1_0B9_
FN:23,_RNCNCNvNtNtCsk1nGwz09EVE_16syncthing_mcp_rs5tools6config16replicate_config0s2_0B9_
FN:24,_RNCNCNvNtNtCsk1nGwz09EVE_16syncthing_mcp_rs5tools6config16replicate_config0s3_0B9_
FN:46,_RNCNCNvNtNtCsk1nGwz09EVE_16syncthing_mcp_rs5tools6config16replicate_config0s4_0B9_
FN:55,_RNCNCNvNtNtCsk1nGwz09EVE_16syncthing_mcp_rs5tools6config16replicate_config0s5_0B9_
FN:68,_RNCNCNvNtNtCsk1nGwz09EVE_16syncthing_mcp_rs5tools6config16replicate_config0s6_0B9_
FN:72,_RNCNCNvNtNtCsk1nGwz09EVE_16syncthing_mcp_rs5tools6config16replicate_config0s7_0B9_
FN:84,_RNCNCNvNtNtCsk1nGwz09EVE_16syncthing_mcp_rs5tools6config16replicate_config0s8_0B9_
FN:89,_RNCNCNvNtNtCsk1nGwz09EVE_16syncthing_mcp_rs5tools6config16replicate_config0s9_0B9_
FN:16,_RNCNCNvNtNtCsk1nGwz09EVE_16syncthing_mcp_rs5tools6config16replicate_config0s_0B9_
FN:101,_RNCNCNvNtNtCsk1nGwz09EVE_16syncthing_mcp_rs5tools6config16replicate_config0sa_0B9_
FN:104,_RNCNCNvNtNtCsk1nGwz09EVE_16syncthing_mcp_rs5tools6config16replicate_config0sb_0B9_
FN:112,_RNCNCNvNtNtCsk1nGwz09EVE_16syncthing_mcp_rs5tools6config16replicate_config0sc_0B9_
FN:115,_RNCNCNvNtNtCsk1nGwz09EVE_16syncthing_mcp_rs5tools6config16replicate_config0sd_0B9_
FN:134,_RNCNCNvNtNtCsk1nGwz09EVE_16syncthing_mcp_rs5tools6config16replicate_config0se_0B9_
FN:141,_RNCNCNvNtNtCsk1nGwz09EVE_16syncthing_mcp_rs5tools6config16replicate_config0sf_0B9_
FN:267,_RNCNCNvNtNtCsk1nGwz09EVE_16syncthing_mcp_rs5tools6config21diff_instance_configs00B9_
FN:271,_RNCNCNvNtNtCsk1nGwz09EVE_16syncthing_mcp_rs5tools6config21diff_instance_configs0s0_0B9_
FN:277,_RNCNCNvNtNtCsk1nGwz09EVE_16syncthing_mcp_rs5tools6config21diff_instance_configs0s1_0B9_
FN:286,_RNCNCNvNtNtCsk1nGwz09EVE_16syncthing_mcp_rs5tools6config21diff_instance_configs0s2_0B9_
FN:270,_RNCNCNvNtNtCsk1nGwz09EVE_16syncthing_mcp_rs5tools6config21diff_instance_configs0s_0B9_
FN:190,_RNCNCNvNtNtCsk1nGwz09EVE_16syncthing_mcp_rs5tools6config22merge_instance_configs00B9_
FN:194,_RNCNCNvNtNtCsk1nGwz09EVE_16syncthing_mcp_rs5tools6config22merge_instance_configs0s0_0B9_
FN:197,_RNCNCNvNtNtCsk1nGwz09EVE_16syncthing_mcp_rs5tools6config22merge_instance_configs0s1_0B9_
FN:204,_RNCNCNvNtNtCsk1nGwz09EVE_16syncthing_mcp_rs5tools6config22merge_instance_configs0s2_0B9_
FN:213,_RNCNCNvNtNtCsk1nGwz09EVE_16syncthing_mcp_rs5tools6config22merge_instance_configs0s3_0B9_
FN:193,_RNCNCNvNtNtCsk1nGwz09EVE_16syncthing_mcp_rs5tools6config22merge_instance_configs0s_0B9_
FN:12,_RNCNvNtNtCsk1nGwz09EVE_16syncthing_mcp_rs5tools6config16replicate_config0B7_
FN:266,_RNCNvNtNtCsk1nGwz09EVE_16syncthing_mcp_rs5tools6config21diff_instance_configs0B7_
FN:189,_RNCNvNtNtCsk1nGwz09EVE_16syncthing_mcp_rs5tools6config22merge_instance_configs0B7_
FN:8,_RNvNtNtCsk1nGwz09EVE_16syncthing_mcp_rs5tools6config16replicate_config
FN:262,_RNvNtNtCsk1nGwz09EVE_16syncthing_mcp_rs5tools6config21diff_instance_configs
FN:185,_RNvNtNtCsk1nGwz09EVE_16syncthing_mcp_rs5tools6config22merge_instance_configs
FN:8,_RNvNtNtCs1zQjFe0mrqD_16syncthing_mcp_rs5tools6config16replicate_config
FN:262,_RNvNtNtCs1zQjFe0mrqD_16syncthing_mcp_rs5tools6config21diff_instance_configs
FN:185,_RNvNtNtCs1zQjFe0mrqD_16syncthing_mcp_rs5tools6config22merge_instance_configs
FN:13,_RNCNCNvNtNtCs1zQjFe0mrqD_16syncthing_mcp_rs5tools6config16replicate_config00B9_
FN:17,_RNCNCNvNtNtCs1zQjFe0mrqD_16syncthing_mcp_rs5tools6config16replicate_config0s0_0B9_
FN:20,_RNCNCNvNtNtCs1zQjFe0mrqD_16syncthing_mcp_rs5tools6config16replicate_config0s1_0B9_
FN:23,_RNCNCNvNtNtCs1zQjFe0mrqD_16syncthing_mcp_rs5tools6config16replicate_config0s2_0B9_
FN:24,_RNCNCNvNtNtCs1zQjFe0mrqD_16syncthing_mcp_rs5tools6config16replicate_config0s3_0B9_
FN:46,_RNCNCNvNtNtCs1zQjFe0mrqD_16syncthing_mcp_rs5tools6config16replicate_config0s4_0B9_
FN:55,_RNCNCNvNtNtCs1zQjFe0mrqD_16syncthing_mcp_rs5tools6config16replicate_config0s5_0B9_
FN:68,_RNCNCNvNtNtCs1zQjFe0mrqD_16syncthing_mcp_rs5tools6config16replicate_config0s6_0B9_
FN:72,_RNCNCNvNtNtCs1zQjFe0mrqD_16syncthing_mcp_rs5tools6config16replicate_config0s7_0B9_
FN:84,_RNCNCNvNtNtCs1zQjFe0mrqD_16syncthing_mcp_rs5tools6config16replicate_config0s8_0B9_
FN:89,_RNCNCNvNtNtCs1zQjFe0mrqD_16syncthing_mcp_rs5tools6config16replicate_config0s9_0B9_
FN:16,_RNCNCNvNtNtCs1zQjFe0mrqD_16syncthing_mcp_rs5tools6config16replicate_config0s_0B9_
FN:101,_RNCNCNvNtNtCs1zQjFe0mrqD_16syncthing_mcp_rs5tools6config16replicate_config0sa_0B9_
FN:104,_RNCNCNvNtNtCs1zQjFe0mrqD_16syncthing_mcp_rs5tools6config16replicate_config0sb_0B9_
FN:112,_RNCNCNvNtNtCs1zQjFe0mrqD_16syncthing_mcp_rs5tools6config16replicate_config0sc_0B9_
FN:115,_RNCNCNvNtNtCs1zQjFe0mrqD_16syncthing_mcp_rs5tools6config16replicate_config0sd_0B9_
FN:134,_RNCNCNvNtNtCs1zQjFe0mrqD_16syncthing_mcp_rs5tools6config16replicate_config0se_0B9_
FN:141,_RNCNCNvNtNtCs1zQjFe0mrqD_16syncthing_mcp_rs5tools6config16replicate_config0sf_0B9_
FN:267,_RNCNCNvNtNtCs1zQjFe0mrqD_16syncthing_mcp_rs5tools6config21diff_instance_configs00B9_
FN:271,_RNCNCNvNtNtCs1zQjFe0mrqD_16syncthing_mcp_rs5tools6config21diff_instance_configs0s0_0B9_
FN:277,_RNCNCNvNtNtCs1zQjFe0mrqD_16syncthing_mcp_rs5tools6config21diff_instance_configs0s1_0B9_
FN:286,_RNCNCNvNtNtCs1zQjFe0mrqD_16syncthing_mcp_rs5tools6config21diff_instance_configs0s2_0B9_
FN:270,_RNCNCNvNtNtCs1zQjFe0mrqD_16syncthing_mcp_rs5tools6config21diff_instance_configs0s_0B9_
FN:190,_RNCNCNvNtNtCs1zQjFe0mrqD_16syncthing_mcp_rs5tools6config22merge_instance_configs00B9_
FN:194,_RNCNCNvNtNtCs1zQjFe0mrqD_16syncthing_mcp_rs5tools6config22merge_instance_configs0s0_0B9_
FN:197,_RNCNCNvNtNtCs1zQjFe0mrqD_16syncthing_mcp_rs5tools6config22merge_instance_configs0s1_0B9_
FN:204,_RNCNCNvNtNtCs1zQjFe0mrqD_16syncthing_mcp_rs5tools6config22merge_instance_configs0s2_0B9_
FN:213,_RNCNCNvNtNtCs1zQjFe0mrqD_16syncthing_mcp_rs5tools6config22merge_instance_configs0s3_0B9_
FN:193,_RNCNCNvNtNtCs1zQjFe0mrqD_16syncthing_mcp_rs5tools6config22merge_instance_configs0s_0B9_
FN:12,_RNCNvNtNtCs1zQjFe0mrqD_16syncthing_mcp_rs5tools6config16replicate_config0B7_
FN:266,_RNCNvNtNtCs1zQjFe0mrqD_16syncthing_mcp_rs5tools6config21diff_instance_configs0B7_
FN:189,_RNCNvNtNtCs1zQjFe0mrqD_16syncthing_mcp_rs5tools6config22merge_instance_configs0B7_
FNDA:0,_RNCNCNvNtNtCsk1nGwz09EVE_16syncthing_mcp_rs5tools6config16replicate_config00B9_
FNDA:0,_RNCNCNvNtNtCsk1nGwz09EVE_16syncthing_mcp_rs5tools6config16replicate_config0s0_0B9_
FNDA:0,_RNCNCNvNtNtCsk1nGwz09EVE_16syncthing_mcp_rs5tools6config16replicate_config0s1_0B9_
FNDA:0,_RNCNCNvNtNtCsk1nGwz09EVE_16syncthing_mcp_rs5tools6config16replicate_config0s2_0B9_
FNDA:0,_RNCNCNvNtNtCsk1nGwz09EVE_16syncthing_mcp_rs5tools6config16replicate_config0s3_0B9_
FNDA:0,_RNCNCNvNtNtCsk1nGwz09EVE_16syncthing_mcp_rs5tools6config16replicate_config0s4_0B9_
FNDA:0,_RNCNCNvNtNtCsk1nGwz09EVE_16syncthing_mcp_rs5tools6config16replicate_config0s5_0B9_
FNDA:0,_RNCNCNvNtNtCsk1nGwz09EVE_16syncthing_mcp_rs5tools6config16replicate_config0s6_0B9_
FNDA:0,_RNCNCNvNtNtCsk1nGwz09EVE_16syncthing_mcp_rs5tools6config16replicate_config0s7_0B9_
FNDA:0,_RNCNCNvNtNtCsk1nGwz09EVE_16syncthing_mcp_rs5tools6config16replicate_config0s8_0B9_
FNDA:0,_RNCNCNvNtNtCsk1nGwz09EVE_16syncthing_mcp_rs5tools6config16replicate_config0s9_0B9_
FNDA:0,_RNCNCNvNtNtCsk1nGwz09EVE_16syncthing_mcp_rs5tools6config16replicate_config0s_0B9_
FNDA:0,_RNCNCNvNtNtCsk1nGwz09EVE_16syncthing_mcp_rs5tools6config16replicate_config0sa_0B9_
FNDA:0,_RNCNCNvNtNtCsk1nGwz09EVE_16syncthing_mcp_rs5tools6config16replicate_config0sb_0B9_
FNDA:0,_RNCNCNvNtNtCsk1nGwz09EVE_16syncthing_mcp_rs5tools6config16replicate_config0sc_0B9_
FNDA:0,_RNCNCNvNtNtCsk1nGwz09EVE_16syncthing_mcp_rs5tools6config16replicate_config0sd_0B9_
FNDA:0,_RNCNCNvNtNtCsk1nGwz09EVE_16syncthing_mcp_rs5tools6config16replicate_config0se_0B9_
FNDA:0,_RNCNCNvNtNtCsk1nGwz09EVE_16syncthing_mcp_rs5tools6config16replicate_config0sf_0B9_
FNDA:0,_RNCNCNvNtNtCsk1nGwz09EVE_16syncthing_mcp_rs5tools6config21diff_instance_configs00B9_
FNDA:0,_RNCNCNvNtNtCsk1nGwz09EVE_16syncthing_mcp_rs5tools6config21diff_instance_configs0s0_0B9_
FNDA:0,_RNCNCNvNtNtCsk1nGwz09EVE_16syncthing_mcp_rs5tools6config21diff_instance_configs0s1_0B9_
FNDA:0,_RNCNCNvNtNtCsk1nGwz09EVE_16syncthing_mcp_rs5tools6config21diff_instance_configs0s2_0B9_
FNDA:0,_RNCNCNvNtNtCsk1nGwz09EVE_16syncthing_mcp_rs5tools6config21diff_instance_configs0s_0B9_
FNDA:0,_RNCNCNvNtNtCsk1nGwz09EVE_16syncthing_mcp_rs5tools6config22merge_instance_configs00B9_
FNDA:0,_RNCNCNvNtNtCsk1nGwz09EVE_16syncthing_mcp_rs5tools6config22merge_instance_configs0s0_0B9_
FNDA:0,_RNCNCNvNtNtCsk1nGwz09EVE_16syncthing_mcp_rs5tools6config22merge_instance_configs0s1_0B9_
FNDA:0,_RNCNCNvNtNtCsk1nGwz09EVE_16syncthing_mcp_rs5tools6config22merge_instance_configs0s2_0B9_
FNDA:0,_RNCNCNvNtNtCsk1nGwz09EVE_16syncthing_mcp_rs5tools6config22merge_instance_configs0s3_0B9_
FNDA:0,_RNCNCNvNtNtCsk1nGwz09EVE_16syncthing_mcp_rs5tools6config22merge_instance_configs0s_0B9_
FNDA:0,_RNCNvNtNtCsk1nGwz09EVE_16syncthing_mcp_rs5tools6config16replicate_config0B7_
FNDA:0,_RNCNvNtNtCsk1nGwz09EVE_16syncthing_mcp_rs5tools6config21diff_instance_configs0B7_
FNDA:0,_RNCNvNtNtCsk1nGwz09EVE_16syncthing_mcp_rs5tools6config22merge_instance_configs0B7_
FNDA:0,_RNvNtNtCsk1nGwz09EVE_16syncthing_mcp_rs5tools6config16replicate_config
FNDA:0,_RNvNtNtCsk1nGwz09EVE_16syncthing_mcp_rs5tools6config21diff_instance_configs
FNDA:0,_RNvNtNtCsk1nGwz09EVE_16syncthing_mcp_rs5tools6config22merge_instance_configs
FNDA:21,_RNvNtNtCs1zQjFe0mrqD_16syncthing_mcp_rs5tools6config16replicate_config
FNDA:1,_RNvNtNtCs1zQjFe0mrqD_16syncthing_mcp_rs5tools6config21diff_instance_configs
FNDA:1,_RNvNtNtCs1zQjFe0mrqD_16syncthing_mcp_rs5tools6config22merge_instance_configs
FNDA:19,_RNCNCNvNtNtCs1zQjFe0mrqD_16syncthing_mcp_rs5tools6config16replicate_config00B9_
FNDA:0,_RNCNCNvNtNtCs1zQjFe0mrqD_16syncthing_mcp_rs5tools6config16replicate_config0s0_0B9_
FNDA:1,_RNCNCNvNtNtCs1zQjFe0mrqD_16syncthing_mcp_rs5tools6config16replicate_config0s1_0B9_
FNDA:11,_RNCNCNvNtNtCs1zQjFe0mrqD_16syncthing_mcp_rs5tools6config16replicate_config0s2_0B9_
FNDA:5,_RNCNCNvNtNtCs1zQjFe0mrqD_16syncthing_mcp_rs5tools6config16replicate_config0s3_0B9_
FNDA:2,_RNCNCNvNtNtCs1zQjFe0mrqD_16syncthing_mcp_rs5tools6config16replicate_config0s4_0B9_
FNDA:2,_RNCNCNvNtNtCs1zQjFe0mrqD_16syncthing_mcp_rs5tools6config16replicate_config0s5_0B9_
FNDA:8,_RNCNCNvNtNtCs1zQjFe0mrqD_16syncthing_mcp_rs5tools6config16replicate_config0s6_0B9_
FNDA:2,_RNCNCNvNtNtCs1zQjFe0mrqD_16syncthing_mcp_rs5tools6config16replicate_config0s7_0B9_
FNDA:5,_RNCNCNvNtNtCs1zQjFe0mrqD_16syncthing_mcp_rs5tools6config16replicate_config0s8_0B9_
FNDA:2,_RNCNCNvNtNtCs1zQjFe0mrqD_16syncthing_mcp_rs5tools6config16replicate_config0s9_0B9_
FNDA:21,_RNCNCNvNtNtCs1zQjFe0mrqD_16syncthing_mcp_rs5tools6config16replicate_config0s_0B9_
FNDA:4,_RNCNCNvNtNtCs1zQjFe0mrqD_16syncthing_mcp_rs5tools6config16replicate_config0sa_0B9_
FNDA:5,_RNCNCNvNtNtCs1zQjFe0mrqD_16syncthing_mcp_rs5tools6config16replicate_config0sb_0B9_
FNDA:1,_RNCNCNvNtNtCs1zQjFe0mrqD_16syncthing_mcp_rs5tools6config16replicate_config0sc_0B9_
FNDA:2,_RNCNCNvNtNtCs1zQjFe0mrqD_16syncthing_mcp_rs5tools6config16replicate_config0sd_0B9_
FNDA:1,_RNCNCNvNtNtCs1zQjFe0mrqD_16syncthing_mcp_rs5tools6config16replicate_config0se_0B9_
FNDA:2,_RNCNCNvNtNtCs1zQjFe0mrqD_16syncthing_mcp_rs5tools6config16replicate_config0sf_0B9_
FNDA:1,_RNCNCNvNtNtCs1zQjFe0mrqD_16syncthing_mcp_rs5tools6config21diff_instance_configs00B9_
FNDA:0,_RNCNCNvNtNtCs1zQjFe0mrqD_16syncthing_mcp_rs5tools6config21diff_instance_configs0s0_0B9_
FNDA:0,_RNCNCNvNtNtCs1zQjFe0mrqD_16syncthing_mcp_rs5tools6config21diff_instance_configs0s1_0B9_
FNDA:0,_RNCNCNvNtNtCs1zQjFe0mrqD_16syncthing_mcp_rs5tools6config21diff_instance_configs0s2_0B9_
FNDA:1,_RNCNCNvNtNtCs1zQjFe0mrqD_16syncthing_mcp_rs5tools6config21diff_instance_configs0s_0B9_
FNDA:1,_RNCNCNvNtNtCs1zQjFe0mrqD_16syncthing_mcp_rs5tools6config22merge_instance_configs00B9_
FNDA:0,_RNCNCNvNtNtCs1zQjFe0mrqD_16syncthing_mcp_rs5tools6config22merge_instance_configs0s0_0B9_
FNDA:0,_RNCNCNvNtNtCs1zQjFe0mrqD_16syncthing_mcp_rs5tools6config22merge_instance_configs0s1_0B9_
FNDA:0,_RNCNCNvNtNtCs1zQjFe0mrqD_16syncthing_mcp_rs5tools6config22merge_instance_configs0s2_0B9_
FNDA:0,_RNCNCNvNtNtCs1zQjFe0mrqD_16syncthing_mcp_rs5tools6config22merge_instance_configs0s3_0B9_
FNDA:1,_RNCNCNvNtNtCs1zQjFe0mrqD_16syncthing_mcp_rs5tools6config22merge_instance_configs0s_0B9_
FNDA:21,_RNCNvNtNtCs1zQjFe0mrqD_16syncthing_mcp_rs5tools6config16replicate_config0B7_
FNDA:1,_RNCNvNtNtCs1zQjFe0mrqD_16syncthing_mcp_rs5tools6config21diff_instance_configs0B7_
FNDA:1,_RNCNvNtNtCs1zQjFe0mrqD_16syncthing_mcp_rs5tools6config22merge_instance_configs0B7_
FNF:35
FNH:27
DA:8,21
DA:9,21
DA:10,21
DA:11,21
DA:12,21
DA:13,21
DA:14,21
DA:15,21
DA:16,21
DA:17,21
DA:18,21
DA:19,21
DA:20,21
DA:21,21
DA:23,21
DA:24,21
DA:27,21
DA:28,11
DA:30,1
DA:31,1
DA:32,1
DA:33,20
DA:34,20
DA:35,5
DA:37,1
DA:38,1
DA:39,1
DA:40,19
DA:43,19
DA:44,19
DA:45,19
DA:46,19
DA:47,17
DA:49,0
DA:53,17
DA:54,17
DA:55,17
DA:56,15
DA:59,15
DA:60,15
DA:63,15
DA:64,15
DA:67,15
DA:68,8
DA:69,8
DA:70,8
DA:71,8
DA:72,8
DA:73,6
DA:74,2
DA:75,2
DA:76,2
DA:77,2
DA:78,4
DA:80,7
DA:81,11
DA:82,4
DA:83,4
DA:84,5
DA:85,4
DA:86,4
DA:87,4
DA:88,4
DA:89,4
DA:90,2
DA:91,1
DA:92,1
DA:93,1
DA:94,1
DA:95,1
DA:97,7
DA:100,8
DA:101,4
DA:102,4
DA:103,4
DA:104,5
DA:105,4
DA:106,4
DA:108,4
DA:111,8
DA:112,1
DA:113,1
DA:114,1
DA:115,2
DA:116,1
DA:117,1
DA:119,7
DA:123,8
DA:124,8
DA:125,7
DA:126,2
DA:127,2
DA:130,8
DA:131,7
DA:132,1
DA:133,1
DA:134,1
DA:135,0
DA:136,0
DA:137,7
DA:140,8
DA:141,4
DA:142,4
DA:145,8
DA:146,8
DA:147,8
DA:149,8
DA:150,8
DA:151,8
DA:154,8
DA:155,8
DA:158,8
DA:159,7
DA:160,1
DA:162,8
DA:163,1
DA:168,7
DA:174,8
DA:176,8
DA:177,8
DA:178,8
DA:179,8
DA:180,8
DA:181,8
DA:182,21
DA:185,1
DA:186,1
DA:187,1
DA:188,1
DA:189,1
DA:190,1
DA:191,1
DA:192,1
DA:193,1
DA:194,1
DA:195,1
DA:196,1
DA:197,1
DA:198,1
DA:201,1
DA:202,1
DA:203,1
DA:204,1
DA:205,1
DA:207,0
DA:211,1
DA:212,1
DA:213,1
DA:214,1
DA:217,1
DA:218,1
DA:222,1
DA:223,1
DA:226,1
DA:227,1
DA:229,1
DA:232,1
DA:233,1
DA:234,1
DA:235,0
DA:237,1
DA:238,0
DA:240,0
DA:244,1
DA:246,1
DA:251,1
DA:253,1
DA:254,1
DA:255,1
DA:256,1
DA:257,1
DA:258,1
DA:259,1
DA:262,1
DA:263,1
DA:264,1
DA:265,1
DA:266,1
DA:267,1
DA:268,1
DA:269,1
DA:270,1
DA:271,1
DA:274,1
DA:275,1
DA:276,1
DA:277,1
DA:278,1
DA:280,0
DA:284,1
DA:285,1
DA:286,1
DA:287,1
DA:290,1
DA:291,1
DA:294,1
DA:295,1
DA:297,1
DA:298,1
DA:299,1
DA:300,1
DA:301,1
DA:302,1
DA:303,1
BRF:0
BRH:0
LF:236
LH:220
end_of_record
SF:/home/nicholas/git/nicholaswilde/syncthing-mcp-rs/src/tools/config_diff.rs
FN:41,_RNCNvMNtNtCsk1nGwz09EVE_16syncthing_mcp_rs5tools11config_diffNtB4_10ConfigDiff8generate0B8_
FN:51,_RNCNvMNtNtCsk1nGwz09EVE_16syncthing_mcp_rs5tools11config_diffNtB4_10ConfigDiff8generates0_0B8_
FN:56,_RNCNvMNtNtCsk1nGwz09EVE_16syncthing_mcp_rs5tools11config_diffNtB4_10ConfigDiff8generates1_0B8_
FN:65,_RNCNvMNtNtCsk1nGwz09EVE_16syncthing_mcp_rs5tools11config_diffNtB4_10ConfigDiff8generates2_0B8_
FN:69,_RNCNvMNtNtCsk1nGwz09EVE_16syncthing_mcp_rs5tools11config_diffNtB4_10ConfigDiff8generates3_0B8_
FN:73,_RNCNvMNtNtCsk1nGwz09EVE_16syncthing_mcp_rs5tools11config_diffNtB4_10ConfigDiff8generates4_0B8_
FN:80,_RNCNvMNtNtCsk1nGwz09EVE_16syncthing_mcp_rs5tools11config_diffNtB4_10ConfigDiff8generates5_0B8_
FN:84,_RNCNvMNtNtCsk1nGwz09EVE_16syncthing_mcp_rs5tools11config_diffNtB4_10ConfigDiff8generates6_0B8_
FN:88,_RNCNvMNtNtCsk1nGwz09EVE_16syncthing_mcp_rs5tools11config_diffNtB4_10ConfigDiff8generates7_0B8_
FN:92,_RNCNvMNtNtCsk1nGwz09EVE_16syncthing_mcp_rs5tools11config_diffNtB4_10ConfigDiff8generates8_0B8_
FN:97,_RNCNvMNtNtCsk1nGwz09EVE_16syncthing_mcp_rs5tools11config_diffNtB4_10ConfigDiff8generates9_0B8_
FN:43,_RNCNvMNtNtCsk1nGwz09EVE_16syncthing_mcp_rs5tools11config_diffNtB4_10ConfigDiff8generates_0B8_
FN:207,_RNCNvNtNtCsk1nGwz09EVE_16syncthing_mcp_rs5tools11config_diff11apply_patch0B7_
FN:216,_RNCNvNtNtCsk1nGwz09EVE_16syncthing_mcp_rs5tools11config_diff11apply_patchs0_0B7_
FN:228,_RNCNvNtNtCsk1nGwz09EVE_16syncthing_mcp_rs5tools11config_diff11apply_patchs1_0B7_
FN:212,_RNCNvNtNtCsk1nGwz09EVE_16syncthing_mcp_rs5tools11config_diff11apply_patchs_0B7_
FN:103,_RNvMNtNtCsk1nGwz09EVE_16syncthing_mcp_rs5tools11config_diffNtB2_10ConfigDiff7summary
FN:39,_RNvMNtNtCsk1nGwz09EVE_16syncthing_mcp_rs5tools11config_diffNtB2_10ConfigDiff8generate
FN:177,_RNvMNtNtCsk1nGwz09EVE_16syncthing_mcp_rs5tools11config_diffNtB2_10ConfigDiff8to_patch
FN:203,_RNvNtNtCsk1nGwz09EVE_16syncthing_mcp_rs5tools11config_diff11apply_patch
FN:198,_RNvNtNtCsk1nGwz09EVE_16syncthing_mcp_rs5tools11config_diff14calculate_diff
FN:103,_RNvMNtNtCs1zQjFe0mrqD_16syncthing_mcp_rs5tools11config_diffNtB2_10ConfigDiff7summary
FN:39,_RNvMNtNtCs1zQjFe0mrqD_16syncthing_mcp_rs5tools11config_diffNtB2_10ConfigDiff8generate
FN:177,_RNvMNtNtCs1zQjFe0mrqD_16syncthing_mcp_rs5tools11config_diffNtB2_10ConfigDiff8to_patch
FN:203,_RNvNtNtCs1zQjFe0mrqD_16syncthing_mcp_rs5tools11config_diff11apply_patch
FN:198,_RNvNtNtCs1zQjFe0mrqD_16syncthing_mcp_rs5tools11config_diff14calculate_diff
FN:41,_RNCNvMNtNtCs1zQjFe0mrqD_16syncthing_mcp_rs5tools11config_diffNtB4_10ConfigDiff8generate0B8_
FN:51,_RNCNvMNtNtCs1zQjFe0mrqD_16syncthing_mcp_rs5tools11config_diffNtB4_10ConfigDiff8generates0_0B8_
FN:56,_RNCNvMNtNtCs1zQjFe0mrqD_16syncthing_mcp_rs5tools11config_diffNtB4_10ConfigDiff8generates1_0B8_
FN:65,_RNCNvMNtNtCs1zQjFe0mrqD_16syncthing_mcp_rs5tools11config_diffNtB4_10ConfigDiff8generates2_0B8_
FN:69,_RNCNvMNtNtCs1zQjFe0mrqD_16syncthing_mcp_rs5tools11config_diffNtB4_10ConfigDiff8generates3_0B8_
FN:73,_RNCNvMNtNtCs1zQjFe0mrqD_16syncthing_mcp_rs5tools11config_diffNtB4_10ConfigDiff8generates4_0B8_
FN:80,_RNCNvMNtNtCs1zQjFe0mrqD_16syncthing_mcp_rs5tools11config_diffNtB4_10ConfigDiff8generates5_0B8_
FN:84,_RNCNvMNtNtCs1zQjFe0mrqD_16syncthing_mcp_rs5tools11config_diffNtB4_10ConfigDiff8generates6_0B8_
FN:88,_RNCNvMNtNtCs1zQjFe0mrqD_16syncthing_mcp_rs5tools11config_diffNtB4_10ConfigDiff8generates7_0B8_
FN:92,_RNCNvMNtNtCs1zQjFe0mrqD_16syncthing_mcp_rs5tools11config_diffNtB4_10ConfigDiff8generates8_0B8_
FN:97,_RNCNvMNtNtCs1zQjFe0mrqD_16syncthing_mcp_rs5tools11config_diffNtB4_10ConfigDiff8generates9_0B8_
FN:43,_RNCNvMNtNtCs1zQjFe0mrqD_16syncthing_mcp_rs5tools11config_diffNtB4_10ConfigDiff8generates_0B8_
FN:207,_RNCNvNtNtCs1zQjFe0mrqD_16syncthing_mcp_rs5tools11config_diff11apply_patch0B7_
FN:216,_RNCNvNtNtCs1zQjFe0mrqD_16syncthing_mcp_rs5tools11config_diff11apply_patchs0_0B7_
FN:228,_RNCNvNtNtCs1zQjFe0mrqD_16syncthing_mcp_rs5tools11config_diff11apply_patchs1_0B7_
FN:212,_RNCNvNtNtCs1zQjFe0mrqD_16syncthing_mcp_rs5tools11config_diff11apply_patchs_0B7_
FNDA:0,_RNCNvMNtNtCsk1nGwz09EVE_16syncthing_mcp_rs5tools11config_diffNtB4_10ConfigDiff8generate0B8_
FNDA:0,_RNCNvMNtNtCsk1nGwz09EVE_16syncthing_mcp_rs5tools11config_diffNtB4_10ConfigDiff8generates0_0B8_
FNDA:0,_RNCNvMNtNtCsk1nGwz09EVE_16syncthing_mcp_rs5tools11config_diffNtB4_10ConfigDiff8generates1_0B8_
FNDA:0,_RNCNvMNtNtCsk1nGwz09EVE_16syncthing_mcp_rs5tools11config_diffNtB4_10ConfigDiff8generates2_0B8_
FNDA:0,_RNCNvMNtNtCsk1nGwz09EVE_16syncthing_mcp_rs5tools11config_diffNtB4_10ConfigDiff8generates3_0B8_
FNDA:0,_RNCNvMNtNtCsk1nGwz09EVE_16syncthing_mcp_rs5tools11config_diffNtB4_10ConfigDiff8generates4_0B8_
FNDA:0,_RNCNvMNtNtCsk1nGwz09EVE_16syncthing_mcp_rs5tools11config_diffNtB4_10ConfigDiff8generates5_0B8_
FNDA:0,_RNCNvMNtNtCsk1nGwz09EVE_16syncthing_mcp_rs5tools11config_diffNtB4_10ConfigDiff8generates6_0B8_
FNDA:0,_RNCNvMNtNtCsk1nGwz09EVE_16syncthing_mcp_rs5tools11config_diffNtB4_10ConfigDiff8generates7_0B8_
FNDA:0,_RNCNvMNtNtCsk1nGwz09EVE_16syncthing_mcp_rs5tools11config_diffNtB4_10ConfigDiff8generates8_0B8_
FNDA:0,_RNCNvMNtNtCsk1nGwz09EVE_16syncthing_mcp_rs5tools11config_diffNtB4_10ConfigDiff8generates9_0B8_
FNDA:0,_RNCNvMNtNtCsk1nGwz09EVE_16syncthing_mcp_rs5tools11config_diffNtB4_10ConfigDiff8generates_0B8_
FNDA:0,_RNCNvNtNtCsk1nGwz09EVE_16syncthing_mcp_rs5tools11config_diff11apply_patch0B7_
FNDA:0,_RNCNvNtNtCsk1nGwz09EVE_16syncthing_mcp_rs5tools11config_diff11apply_patchs0_0B7_
FNDA:0,_RNCNvNtNtCsk1nGwz09EVE_16syncthing_mcp_rs5tools11config_diff11apply_patchs1_0B7_
FNDA:0,_RNCNvNtNtCsk1nGwz09EVE_16syncthing_mcp_rs5tools11config_diff11apply_patchs_0B7_
FNDA:0,_RNvMNtNtCsk1nGwz09EVE_16syncthing_mcp_rs5tools11config_diffNtB2_10ConfigDiff7summary
FNDA:0,_RNvMNtNtCsk1nGwz09EVE_16syncthing_mcp_rs5tools11config_diffNtB2_10ConfigDiff8generate
FNDA:0,_RNvMNtNtCsk1nGwz09EVE_16syncthing_mcp_rs5tools11config_diffNtB2_10ConfigDiff8to_patch
FNDA:0,_RNvNtNtCsk1nGwz09EVE_16syncthing_mcp_rs5tools11config_diff11apply_patch
FNDA:0,_RNvNtNtCsk1nGwz09EVE_16syncthing_mcp_rs5tools11config_diff14calculate_diff
FNDA:12,_RNvMNtNtCs1zQjFe0mrqD_16syncthing_mcp_rs5tools11config_diffNtB2_10ConfigDiff7summary
FNDA:15,_RNvMNtNtCs1zQjFe0mrqD_16syncthing_mcp_rs5tools11config_diffNtB2_10ConfigDiff8generate
FNDA:1,_RNvMNtNtCs1zQjFe0mrqD_16syncthing_mcp_rs5tools11config_diffNtB2_10ConfigDiff8to_patch
FNDA:2,_RNvNtNtCs1zQjFe0mrqD_16syncthing_mcp_rs5tools11config_diff11apply_patch
FNDA:6,_RNvNtNtCs1zQjFe0mrqD_16syncthing_mcp_rs5tools11config_diff14calculate_diff
FNDA:13,_RNCNvMNtNtCs1zQjFe0mrqD_16syncthing_mcp_rs5tools11config_diffNtB4_10ConfigDiff8generate0B8_
FNDA:7,_RNCNvMNtNtCs1zQjFe0mrqD_16syncthing_mcp_rs5tools11config_diffNtB4_10ConfigDiff8generates0_0B8_
FNDA:2,_RNCNvMNtNtCs1zQjFe0mrqD_16syncthing_mcp_rs5tools11config_diffNtB4_10ConfigDiff8generates1_0B8_
FNDA:10,_RNCNvMNtNtCs1zQjFe0mrqD_16syncthing_mcp_rs5tools11config_diffNtB4_10ConfigDiff8generates2_0B8_
FNDA:3,_RNCNvMNtNtCs1zQjFe0mrqD_16syncthing_mcp_rs5tools11config_diffNtB4_10ConfigDiff8generates3_0B8_
FNDA:3,_RNCNvMNtNtCs1zQjFe0mrqD_16syncthing_mcp_rs5tools11config_diffNtB4_10ConfigDiff8generates4_0B8_
FNDA:2,_RNCNvMNtNtCs1zQjFe0mrqD_16syncthing_mcp_rs5tools11config_diffNtB4_10ConfigDiff8generates5_0B8_
FNDA:6,_RNCNvMNtNtCs1zQjFe0mrqD_16syncthing_mcp_rs5tools11config_diffNtB4_10ConfigDiff8generates6_0B8_
FNDA:1,_RNCNvMNtNtCs1zQjFe0mrqD_16syncthing_mcp_rs5tools11config_diffNtB4_10ConfigDiff8generates7_0B8_
FNDA:1,_RNCNvMNtNtCs1zQjFe0mrqD_16syncthing_mcp_rs5tools11config_diffNtB4_10ConfigDiff8generates8_0B8_
FNDA:0,_RNCNvMNtNtCs1zQjFe0mrqD_16syncthing_mcp_rs5tools11config_diffNtB4_10ConfigDiff8generates9_0B8_
FNDA:6,_RNCNvMNtNtCs1zQjFe0mrqD_16syncthing_mcp_rs5tools11config_diffNtB4_10ConfigDiff8generates_0B8_
FNDA:2,_RNCNvNtNtCs1zQjFe0mrqD_16syncthing_mcp_rs5tools11config_diff11apply_patch0B7_
FNDA:1,_RNCNvNtNtCs1zQjFe0mrqD_16syncthing_mcp_rs5tools11config_diff11apply_patchs0_0B7_
FNDA:0,_RNCNvNtNtCs1zQjFe0mrqD_16syncthing_mcp_rs5tools11config_diff11apply_patchs1_0B7_
FNDA:0,_RNCNvNtNtCs1zQjFe0mrqD_16syncthing_mcp_rs5tools11config_diff11apply_patchs_0B7_
FNF:21
FNH:18
DA:39,15
DA:40,15
DA:41,15
DA:42,15
DA:43,15
DA:45,15
DA:46,15
DA:48,15
DA:49,15
DA:50,15
DA:51,15
DA:52,15
DA:53,15
DA:54,15
DA:55,15
DA:56,15
DA:57,15
DA:59,15
DA:60,15
DA:63,15
DA:64,15
DA:65,15
DA:66,15
DA:67,15
DA:68,15
DA:69,15
DA:70,15
DA:71,15
DA:72,15
DA:73,15
DA:74,3
DA:75,3
DA:78,3
DA:79,3
DA:80,15
DA:81,15
DA:82,15
DA:83,15
DA:84,15
DA:85,15
DA:86,15
DA:87,15
DA:88,15
DA:89,15
DA:90,15
DA:91,15
DA:92,15
DA:93,1
DA:94,1
DA:95,1
DA:96,1
DA:97,15
DA:98,15
DA:100,15
DA:103,12
DA:104,12
DA:106,12
DA:107,3
DA:108,3
DA:109,3
DA:110,3
DA:111,3
DA:112,3
DA:113,9
DA:115,12
DA:116,2
DA:117,2
DA:119,11
DA:121,11
DA:122,11
DA:123,11
DA:125,11
DA:126,11
DA:127,11
DA:128,10
DA:129,10
DA:130,11
DA:131,11
DA:132,11
DA:133,3
DA:134,3
DA:135,11
DA:136,11
DA:137,11
DA:138,1
DA:139,1
DA:140,1
DA:142,12
DA:143,6
DA:144,5
DA:146,7
DA:148,7
DA:149,7
DA:150,7
DA:152,7
DA:153,7
DA:154,7
DA:155,6
DA:156,6
DA:157,7
DA:158,7
DA:159,7
DA:160,2
DA:161,2
DA:162,7
DA:163,7
DA:164,7
DA:165,0
DA:166,0
DA:167,5
DA:169,12
DA:170,0
DA:172,12
DA:174,12
DA:177,1
DA:178,1
DA:179,1
DA:180,1
DA:181,1
DA:182,1
DA:183,1
DA:184,1
DA:185,1
DA:186,1
DA:187,1
DA:188,1
DA:189,1
DA:190,1
DA:191,1
DA:192,1
DA:193,1
DA:194,1
DA:198,6
DA:199,6
DA:200,6
DA:203,2
DA:205,2
DA:206,2
DA:207,2
DA:210,2
DA:211,2
DA:212,2
DA:215,2
DA:216,2
DA:217,0
DA:218,2
DA:219,2
DA:220,2
DA:224,2
DA:225,0
DA:226,0
DA:227,0
DA:228,0
DA:229,0
DA:230,0
DA:231,0
DA:232,0
DA:233,0
DA:236,2
DA:237,2
BRF:0
BRH:0
LF:176
LH:160
end_of_record
SF:/home/nicholas/git/nicholaswilde/syncthing-mcp-rs/src/tools/conflicts.rs
FN:134,_RNCNCNvNtNtCsk1nGwz09EVE_16syncthing_mcp_rs5tools9conflicts14list_conflicts00B9_
FN:174,_RNCNCNvNtNtCsk1nGwz09EVE_16syncthing_mcp_rs5tools9conflicts14list_conflicts0s_0B9_
FN:55,_RNCNCNvNtNtCsk1nGwz09EVE_16syncthing_mcp_rs5tools9conflicts14scan_recursive00B9_
FN:60,_RNCNCNvNtNtCsk1nGwz09EVE_16syncthing_mcp_rs5tools9conflicts14scan_recursive0s0_0B9_
FN:57,_RNCNCNvNtNtCsk1nGwz09EVE_16syncthing_mcp_rs5tools9conflicts14scan_recursive0s_0B9_
FN:340,_RNCNCNvNtNtCsk1nGwz09EVE_16syncthing_mcp_rs5tools9conflicts15delete_conflict00B9_
FN:348,_RNCNCNvNtNtCsk1nGwz09EVE_16syncthing_mcp_rs5tools9conflicts15delete_conflict0s0_0B9_
FN:374,_RNCNCNvNtNtCsk1nGwz09EVE_16syncthing_mcp_rs5tools9conflicts15delete_conflict0s1_0B9_
FN:384,_RNCNCNvNtNtCsk1nGwz09EVE_16syncthing_mcp_rs5tools9conflicts15delete_conflict0s2_0B9_
FN:343,_RNCNCNvNtNtCsk1nGwz09EVE_16syncthing_mcp_rs5tools9conflicts15delete_conflict0s_0B9_
FN:201,_RNCNCNvNtNtCsk1nGwz09EVE_16syncthing_mcp_rs5tools9conflicts16resolve_conflict00B9_
FN:207,_RNCNCNvNtNtCsk1nGwz09EVE_16syncthing_mcp_rs5tools9conflicts16resolve_conflict0s0_0B9_
FN:212,_RNCNCNvNtNtCsk1nGwz09EVE_16syncthing_mcp_rs5tools9conflicts16resolve_conflict0s1_0B9_
FN:217,_RNCNCNvNtNtCsk1nGwz09EVE_16syncthing_mcp_rs5tools9conflicts16resolve_conflict0s2_0B9_
FN:228,_RNCNCNvNtNtCsk1nGwz09EVE_16syncthing_mcp_rs5tools9conflicts16resolve_conflict0s3_0B9_
FN:233,_RNCNCNvNtNtCsk1nGwz09EVE_16syncthing_mcp_rs5tools9conflicts16resolve_conflict0s4_0B9_
FN:261,_RNCNCNvNtNtCsk1nGwz09EVE_16syncthing_mcp_rs5tools9conflicts16resolve_conflict0s5_0B9_
FN:276,_RNCNCNvNtNtCsk1nGwz09EVE_16syncthing_mcp_rs5tools9conflicts16resolve_conflict0s6_0B9_
FN:302,_RNCNCNvNtNtCsk1nGwz09EVE_16syncthing_mcp_rs5tools9conflicts16resolve_conflict0s7_0B9_
FN:312,_RNCNCNvNtNtCsk1nGwz09EVE_16syncthing_mcp_rs5tools9conflicts16resolve_conflict0s8_0B9_
FN:204,_RNCNCNvNtNtCsk1nGwz09EVE_16syncthing_mcp_rs5tools9conflicts16resolve_conflict0s_0B9_
FN:131,_RNCNvNtNtCsk1nGwz09EVE_16syncthing_mcp_rs5tools9conflicts14list_conflicts0B7_
FN:37,_RNCNvNtNtCsk1nGwz09EVE_16syncthing_mcp_rs5tools9conflicts14scan_conflicts0B7_
FN:48,_RNCNvNtNtCsk1nGwz09EVE_16syncthing_mcp_rs5tools9conflicts14scan_recursive0B7_
FN:337,_RNCNvNtNtCsk1nGwz09EVE_16syncthing_mcp_rs5tools9conflicts15delete_conflict0B7_
FN:198,_RNCNvNtNtCsk1nGwz09EVE_16syncthing_mcp_rs5tools9conflicts16resolve_conflict0B7_
FN:91,_RNCNvNtNtCsk1nGwz09EVE_16syncthing_mcp_rs5tools9conflicts18format_system_time0B7_
FN:95,_RNCNvNtNtCsk1nGwz09EVE_16syncthing_mcp_rs5tools9conflicts18format_system_times_0B7_
FN:103,_RNCNvNtNtCsk1nGwz09EVE_16syncthing_mcp_rs5tools9conflicts23parse_conflict_filename0B7_
FN:127,_RNvNtNtCsk1nGwz09EVE_16syncthing_mcp_rs5tools9conflicts14list_conflicts
FN:37,_RNvNtNtCsk1nGwz09EVE_16syncthing_mcp_rs5tools9conflicts14scan_conflicts
FN:48,_RNvNtNtCsk1nGwz09EVE_16syncthing_mcp_rs5tools9conflicts14scan_recursive
FN:333,_RNvNtNtCsk1nGwz09EVE_16syncthing_mcp_rs5tools9conflicts15delete_conflict
FN:194,_RNvNtNtCsk1nGwz09EVE_16syncthing_mcp_rs5tools9conflicts16resolve_conflict
FN:90,_RNvNtNtCsk1nGwz09EVE_16syncthing_mcp_rs5tools9conflicts18format_system_time
FN:98,_RNvNtNtCsk1nGwz09EVE_16syncthing_mcp_rs5tools9conflicts23parse_conflict_filename
FN:440,_RNvNtNtNtCs1zQjFe0mrqD_16syncthing_mcp_rs5tools9conflicts5testss_19test_scan_conflicts
FN:485,_RNvNtNtNtCs1zQjFe0mrqD_16syncthing_mcp_rs5tools9conflicts5testss_24test_list_conflicts_tool
FN:528,_RNvNtNtNtCs1zQjFe0mrqD_16syncthing_mcp_rs5tools9conflicts5testss_25test_list_conflicts_empty
FN:401,_RNvNtNtNtCs1zQjFe0mrqD_16syncthing_mcp_rs5tools9conflicts5testss_27test_conflict_regex_parsing
FN:621,_RNvNtNtNtCs1zQjFe0mrqD_16syncthing_mcp_rs5tools9conflicts5testss_29test_resolve_conflict_preview
FN:648,_RNvNtNtNtCs1zQjFe0mrqD_16syncthing_mcp_rs5tools9conflicts5testss_30test_delete_conflict_no_backup
FN:415,_RNvNtNtNtCs1zQjFe0mrqD_16syncthing_mcp_rs5tools9conflicts5testss_34test_conflict_regex_parsing_no_ext
FN:433,_RNvNtNtNtCs1zQjFe0mrqD_16syncthing_mcp_rs5tools9conflicts5testss_35test_conflict_regex_parsing_invalid
FN:425,_RNvNtNtNtCs1zQjFe0mrqD_16syncthing_mcp_rs5tools9conflicts5testss_41test_conflict_regex_parsing_multiple_dots
FN:590,_RNvNtNtNtCs1zQjFe0mrqD_16syncthing_mcp_rs5tools9conflicts5testss_45test_resolve_conflict_keep_conflict_no_backup
FN:563,_RNvNtNtNtCs1zQjFe0mrqD_16syncthing_mcp_rs5tools9conflicts5testss_45test_resolve_conflict_keep_original_no_backup
FN:475,_RNCNCNvNtNtNtCs1zQjFe0mrqD_16syncthing_mcp_rs5tools9conflicts5testss_19test_scan_conflicts00Bb_
FN:440,_RNCNvNtNtNtCs1zQjFe0mrqD_16syncthing_mcp_rs5tools9conflicts5testss_19test_scan_conflicts0B9_
FN:485,_RNCNvNtNtNtCs1zQjFe0mrqD_16syncthing_mcp_rs5tools9conflicts5testss_24test_list_conflicts_tool0B9_
FN:528,_RNCNvNtNtNtCs1zQjFe0mrqD_16syncthing_mcp_rs5tools9conflicts5testss_25test_list_conflicts_empty0B9_
FN:621,_RNCNvNtNtNtCs1zQjFe0mrqD_16syncthing_mcp_rs5tools9conflicts5testss_29test_resolve_conflict_preview0B9_
FN:648,_RNCNvNtNtNtCs1zQjFe0mrqD_16syncthing_mcp_rs5tools9conflicts5testss_30test_delete_conflict_no_backup0B9_
FN:590,_RNCNvNtNtNtCs1zQjFe0mrqD_16syncthing_mcp_rs5tools9conflicts5testss_45test_resolve_conflict_keep_conflict_no_backup0B9_
FN:563,_RNCNvNtNtNtCs1zQjFe0mrqD_16syncthing_mcp_rs5tools9conflicts5testss_45test_resolve_conflict_keep_original_no_backup0B9_
FN:134,_RNCNCNvNtNtCs1zQjFe0mrqD_16syncthing_mcp_rs5tools9conflicts14list_conflicts00B9_
FN:174,_RNCNCNvNtNtCs1zQjFe0mrqD_16syncthing_mcp_rs5tools9conflicts14list_conflicts0s_0B9_
FN:55,_RNCNCNvNtNtCs1zQjFe0mrqD_16syncthing_mcp_rs5tools9conflicts14scan_recursive00B9_
FN:60,_RNCNCNvNtNtCs1zQjFe0mrqD_16syncthing_mcp_rs5tools9conflicts14scan_recursive0s0_0B9_
FN:57,_RNCNCNvNtNtCs1zQjFe0mrqD_16syncthing_mcp_rs5tools9conflicts14scan_recursive0s_0B9_
FN:340,_RNCNCNvNtNtCs1zQjFe0mrqD_16syncthing_mcp_rs5tools9conflicts15delete_conflict00B9_
FN:348,_RNCNCNvNtNtCs1zQjFe0mrqD_16syncthing_mcp_rs5tools9conflicts15delete_conflict0s0_0B9_
FN:374,_RNCNCNvNtNtCs1zQjFe0mrqD_16syncthing_mcp_rs5tools9conflicts15delete_conflict0s1_0B9_
FN:384,_RNCNCNvNtNtCs1zQjFe0mrqD_16syncthing_mcp_rs5tools9conflicts15delete_conflict0s2_0B9_
FN:343,_RNCNCNvNtNtCs1zQjFe0mrqD_16syncthing_mcp_rs5tools9conflicts15delete_conflict0s_0B9_
FN:201,_RNCNCNvNtNtCs1zQjFe0mrqD_16syncthing_mcp_rs5tools9conflicts16resolve_conflict00B9_
FN:207,_RNCNCNvNtNtCs1zQjFe0mrqD_16syncthing_mcp_rs5tools9conflicts16resolve_conflict0s0_0B9_
FN:212,_RNCNCNvNtNtCs1zQjFe0mrqD_16syncthing_mcp_rs5tools9conflicts16resolve_conflict0s1_0B9_
FN:217,_RNCNCNvNtNtCs1zQjFe0mrqD_16syncthing_mcp_rs5tools9conflicts16resolve_conflict0s2_0B9_
FN:228,_RNCNCNvNtNtCs1zQjFe0mrqD_16syncthing_mcp_rs5tools9conflicts16resolve_conflict0s3_0B9_
FN:233,_RNCNCNvNtNtCs1zQjFe0mrqD_16syncthing_mcp_rs5tools9conflicts16resolve_conflict0s4_0B9_
FN:261,_RNCNCNvNtNtCs1zQjFe0mrqD_16syncthing_mcp_rs5tools9conflicts16resolve_conflict0s5_0B9_
FN:276,_RNCNCNvNtNtCs1zQjFe0mrqD_16syncthing_mcp_rs5tools9conflicts16resolve_conflict0s6_0B9_
FN:302,_RNCNCNvNtNtCs1zQjFe0mrqD_16syncthing_mcp_rs5tools9conflicts16resolve_conflict0s7_0B9_
FN:312,_RNCNCNvNtNtCs1zQjFe0mrqD_16syncthing_mcp_rs5tools9conflicts16resolve_conflict0s8_0B9_
FN:204,_RNCNCNvNtNtCs1zQjFe0mrqD_16syncthing_mcp_rs5tools9conflicts16resolve_conflict0s_0B9_
FN:131,_RNCNvNtNtCs1zQjFe0mrqD_16syncthing_mcp_rs5tools9conflicts14list_conflicts0B7_
FN:37,_RNCNvNtNtCs1zQjFe0mrqD_16syncthing_mcp_rs5tools9conflicts14scan_conflicts0B7_
FN:48,_RNCNvNtNtCs1zQjFe0mrqD_16syncthing_mcp_rs5tools9conflicts14scan_recursive0B7_
FN:337,_RNCNvNtNtCs1zQjFe0mrqD_16syncthing_mcp_rs5tools9conflicts15delete_conflict0B7_
FN:198,_RNCNvNtNtCs1zQjFe0mrqD_16syncthing_mcp_rs5tools9conflicts16resolve_conflict0B7_
FN:91,_RNCNvNtNtCs1zQjFe0mrqD_16syncthing_mcp_rs5tools9conflicts18format_system_time0B7_
FN:95,_RNCNvNtNtCs1zQjFe0mrqD_16syncthing_mcp_rs5tools9conflicts18format_system_times_0B7_
FN:103,_RNCNvNtNtCs1zQjFe0mrqD_16syncthing_mcp_rs5tools9conflicts23parse_conflict_filename0B7_
FN:127,_RNvNtNtCs1zQjFe0mrqD_16syncthing_mcp_rs5tools9conflicts14list_conflicts
FN:37,_RNvNtNtCs1zQjFe0mrqD_16syncthing_mcp_rs5tools9conflicts14scan_conflicts
FN:48,_RNvNtNtCs1zQjFe0mrqD_16syncthing_mcp_rs5tools9conflicts14scan_recursive
FN:333,_RNvNtNtCs1zQjFe0mrqD_16syncthing_mcp_rs5tools9conflicts15delete_conflict
FN:194,_RNvNtNtCs1zQjFe0mrqD_16syncthing_mcp_rs5tools9conflicts16resolve_conflict
FN:90,_RNvNtNtCs1zQjFe0mrqD_16syncthing_mcp_rs5tools9conflicts18format_system_time
FN:98,_RNvNtNtCs1zQjFe0mrqD_16syncthing_mcp_rs5tools9conflicts23parse_conflict_filename
FNDA:0,_RNCNCNvNtNtCsk1nGwz09EVE_16syncthing_mcp_rs5tools9conflicts14list_conflicts00B9_
FNDA:0,_RNCNCNvNtNtCsk1nGwz09EVE_16syncthing_mcp_rs5tools9conflicts14list_conflicts0s_0B9_
FNDA:0,_RNCNCNvNtNtCsk1nGwz09EVE_16syncthing_mcp_rs5tools9conflicts14scan_recursive00B9_
FNDA:0,_RNCNCNvNtNtCsk1nGwz09EVE_16syncthing_mcp_rs5tools9conflicts14scan_recursive0s0_0B9_
FNDA:0,_RNCNCNvNtNtCsk1nGwz09EVE_16syncthing_mcp_rs5tools9conflicts14scan_recursive0s_0B9_
FNDA:0,_RNCNCNvNtNtCsk1nGwz09EVE_16syncthing_mcp_rs5tools9conflicts15delete_conflict00B9_
FNDA:0,_RNCNCNvNtNtCsk1nGwz09EVE_16syncthing_mcp_rs5tools9conflicts15delete_conflict0s0_0B9_
FNDA:0,_RNCNCNvNtNtCsk1nGwz09EVE_16syncthing_mcp_rs5tools9conflicts15delete_conflict0s1_0B9_
FNDA:0,_RNCNCNvNtNtCsk1nGwz09EVE_16syncthing_mcp_rs5tools9conflicts15delete_conflict0s2_0B9_
FNDA:0,_RNCNCNvNtNtCsk1nGwz09EVE_16syncthing_mcp_rs5tools9conflicts15delete_conflict0s_0B9_
FNDA:0,_RNCNCNvNtNtCsk1nGwz09EVE_16syncthing_mcp_rs5tools9conflicts16resolve_conflict00B9_
FNDA:0,_RNCNCNvNtNtCsk1nGwz09EVE_16syncthing_mcp_rs5tools9conflicts16resolve_conflict0s0_0B9_
FNDA:0,_RNCNCNvNtNtCsk1nGwz09EVE_16syncthing_mcp_rs5tools9conflicts16resolve_conflict0s1_0B9_
FNDA:0,_RNCNCNvNtNtCsk1nGwz09EVE_16syncthing_mcp_rs5tools9conflicts16resolve_conflict0s2_0B9_
FNDA:0,_RNCNCNvNtNtCsk1nGwz09EVE_16syncthing_mcp_rs5tools9conflicts16resolve_conflict0s3_0B9_
FNDA:0,_RNCNCNvNtNtCsk1nGwz09EVE_16syncthing_mcp_rs5tools9conflicts16resolve_conflict0s4_0B9_
FNDA:0,_RNCNCNvNtNtCsk1nGwz09EVE_16syncthing_mcp_rs5tools9conflicts16resolve_conflict0s5_0B9_
FNDA:0,_RNCNCNvNtNtCsk1nGwz09EVE_16syncthing_mcp_rs5tools9conflicts16resolve_conflict0s6_0B9_
FNDA:0,_RNCNCNvNtNtCsk1nGwz09EVE_16syncthing_mcp_rs5tools9conflicts16resolve_conflict0s7_0B9_
FNDA:0,_RNCNCNvNtNtCsk1nGwz09EVE_16syncthing_mcp_rs5tools9conflicts16resolve_conflict0s8_0B9_
FNDA:0,_RNCNCNvNtNtCsk1nGwz09EVE_16syncthing_mcp_rs5tools9conflicts16resolve_conflict0s_0B9_
FNDA:0,_RNCNvNtNtCsk1nGwz09EVE_16syncthing_mcp_rs5tools9conflicts14list_conflicts0B7_
FNDA:0,_RNCNvNtNtCsk1nGwz09EVE_16syncthing_mcp_rs5tools9conflicts14scan_conflicts0B7_
FNDA:0,_RNCNvNtNtCsk1nGwz09EVE_16syncthing_mcp_rs5tools9conflicts14scan_recursive0B7_
FNDA:0,_RNCNvNtNtCsk1nGwz09EVE_16syncthing_mcp_rs5tools9conflicts15delete_conflict0B7_
FNDA:0,_RNCNvNtNtCsk1nGwz09EVE_16syncthing_mcp_rs5tools9conflicts16resolve_conflict0B7_
FNDA:0,_RNCNvNtNtCsk1nGwz09EVE_16syncthing_mcp_rs5tools9conflicts18format_system_time0B7_
FNDA:0,_RNCNvNtNtCsk1nGwz09EVE_16syncthing_mcp_rs5tools9conflicts18format_system_times_0B7_
FNDA:0,_RNCNvNtNtCsk1nGwz09EVE_16syncthing_mcp_rs5tools9conflicts23parse_conflict_filename0B7_
FNDA:0,_RNvNtNtCsk1nGwz09EVE_16syncthing_mcp_rs5tools9conflicts14list_conflicts
FNDA:0,_RNvNtNtCsk1nGwz09EVE_16syncthing_mcp_rs5tools9conflicts14scan_conflicts
FNDA:0,_RNvNtNtCsk1nGwz09EVE_16syncthing_mcp_rs5tools9conflicts14scan_recursive
FNDA:0,_RNvNtNtCsk1nGwz09EVE_16syncthing_mcp_rs5tools9conflicts15delete_conflict
FNDA:0,_RNvNtNtCsk1nGwz09EVE_16syncthing_mcp_rs5tools9conflicts16resolve_conflict
FNDA:0,_RNvNtNtCsk1nGwz09EVE_16syncthing_mcp_rs5tools9conflicts18format_system_time
FNDA:0,_RNvNtNtCsk1nGwz09EVE_16syncthing_mcp_rs5tools9conflicts23parse_conflict_filename
FNDA:1,_RNvNtNtNtCs1zQjFe0mrqD_16syncthing_mcp_rs5tools9conflicts5testss_19test_scan_conflicts
FNDA:1,_RNvNtNtNtCs1zQjFe0mrqD_16syncthing_mcp_rs5tools9conflicts5testss_24test_list_conflicts_tool
FNDA:1,_RNvNtNtNtCs1zQjFe0mrqD_16syncthing_mcp_rs5tools9conflicts5testss_25test_list_conflicts_empty
FNDA:1,_RNvNtNtNtCs1zQjFe0mrqD_16syncthing_mcp_rs5tools9conflicts5testss_27test_conflict_regex_parsing
FNDA:1,_RNvNtNtNtCs1zQjFe0mrqD_16syncthing_mcp_rs5tools9conflicts5testss_29test_resolve_conflict_preview
FNDA:1,_RNvNtNtNtCs1zQjFe0mrqD_16syncthing_mcp_rs5tools9conflicts5testss_30test_delete_conflict_no_backup
FNDA:1,_RNvNtNtNtCs1zQjFe0mrqD_16syncthing_mcp_rs5tools9conflicts5testss_34test_conflict_regex_parsing_no_ext
FNDA:1,_RNvNtNtNtCs1zQjFe0mrqD_16syncthing_mcp_rs5tools9conflicts5testss_35test_conflict_regex_parsing_invalid
FNDA:1,_RNvNtNtNtCs1zQjFe0mrqD_16syncthing_mcp_rs5tools9conflicts5testss_41test_conflict_regex_parsing_multiple_dots
FNDA:1,_RNvNtNtNtCs1zQjFe0mrqD_16syncthing_mcp_rs5tools9conflicts5testss_45test_resolve_conflict_keep_conflict_no_backup
FNDA:1,_RNvNtNtNtCs1zQjFe0mrqD_16syncthing_mcp_rs5tools9conflicts5testss_45test_resolve_conflict_keep_original_no_backup
FNDA:1,_RNCNCNvNtNtNtCs1zQjFe0mrqD_16syncthing_mcp_rs5tools9conflicts5testss_19test_scan_conflicts00Bb_
FNDA:1,_RNCNvNtNtNtCs1zQjFe0mrqD_16syncthing_mcp_rs5tools9conflicts5testss_19test_scan_conflicts0B9_
FNDA:1,_RNCNvNtNtNtCs1zQjFe0mrqD_16syncthing_mcp_rs5tools9conflicts5testss_24test_list_conflicts_tool0B9_
FNDA:1,_RNCNvNtNtNtCs1zQjFe0mrqD_16syncthing_mcp_rs5tools9conflicts5testss_25test_list_conflicts_empty0B9_
FNDA:1,_RNCNvNtNtNtCs1zQjFe0mrqD_16syncthing_mcp_rs5tools9conflicts5testss_29test_resolve_conflict_preview0B9_
FNDA:1,_RNCNvNtNtNtCs1zQjFe0mrqD_16syncthing_mcp_rs5tools9conflicts5testss_30test_delete_conflict_no_backup0B9_
FNDA:1,_RNCNvNtNtNtCs1zQjFe0mrqD_16syncthing_mcp_rs5tools9conflicts5testss_45test_resolve_conflict_keep_conflict_no_backup0B9_
FNDA:1,_RNCNvNtNtNtCs1zQjFe0mrqD_16syncthing_mcp_rs5tools9conflicts5testss_45test_resolve_conflict_keep_original_no_backup0B9_
FNDA:0,_RNCNCNvNtNtCs1zQjFe0mrqD_16syncthing_mcp_rs5tools9conflicts14list_conflicts00B9_
FNDA:0,_RNCNCNvNtNtCs1zQjFe0mrqD_16syncthing_mcp_rs5tools9conflicts14list_conflicts0s_0B9_
FNDA:1,_RNCNCNvNtNtCs1zQjFe0mrqD_16syncthing_mcp_rs5tools9conflicts14scan_recursive00B9_
FNDA:0,_RNCNCNvNtNtCs1zQjFe0mrqD_16syncthing_mcp_rs5tools9conflicts14scan_recursive0s0_0B9_
FNDA:0,_RNCNCNvNtNtCs1zQjFe0mrqD_16syncthing_mcp_rs5tools9conflicts14scan_recursive0s_0B9_
FNDA:0,_RNCNCNvNtNtCs1zQjFe0mrqD_16syncthing_mcp_rs5tools9conflicts15delete_conflict00B9_
FNDA:0,_RNCNCNvNtNtCs1zQjFe0mrqD_16syncthing_mcp_rs5tools9conflicts15delete_conflict0s0_0B9_
FNDA:0,_RNCNCNvNtNtCs1zQjFe0mrqD_16syncthing_mcp_rs5tools9conflicts15delete_conflict0s1_0B9_
FNDA:0,_RNCNCNvNtNtCs1zQjFe0mrqD_16syncthing_mcp_rs5tools9conflicts15delete_conflict0s2_0B9_
FNDA:0,_RNCNCNvNtNtCs1zQjFe0mrqD_16syncthing_mcp_rs5tools9conflicts15delete_conflict0s_0B9_
FNDA:0,_RNCNCNvNtNtCs1zQjFe0mrqD_16syncthing_mcp_rs5tools9conflicts16resolve_conflict00B9_
FNDA:0,_RNCNCNvNtNtCs1zQjFe0mrqD_16syncthing_mcp_rs5tools9conflicts16resolve_conflict0s0_0B9_
FNDA:0,_RNCNCNvNtNtCs1zQjFe0mrqD_16syncthing_mcp_rs5tools9conflicts16resolve_conflict0s1_0B9_
FNDA:0,_RNCNCNvNtNtCs1zQjFe0mrqD_16syncthing_mcp_rs5tools9conflicts16resolve_conflict0s2_0B9_
FNDA:0,_RNCNCNvNtNtCs1zQjFe0mrqD_16syncthing_mcp_rs5tools9conflicts16resolve_conflict0s3_0B9_
FNDA:0,_RNCNCNvNtNtCs1zQjFe0mrqD_16syncthing_mcp_rs5tools9conflicts16resolve_conflict0s4_0B9_
FNDA:0,_RNCNCNvNtNtCs1zQjFe0mrqD_16syncthing_mcp_rs5tools9conflicts16resolve_conflict0s5_0B9_
FNDA:0,_RNCNCNvNtNtCs1zQjFe0mrqD_16syncthing_mcp_rs5tools9conflicts16resolve_conflict0s6_0B9_
FNDA:0,_RNCNCNvNtNtCs1zQjFe0mrqD_16syncthing_mcp_rs5tools9conflicts16resolve_conflict0s7_0B9_
FNDA:0,_RNCNCNvNtNtCs1zQjFe0mrqD_16syncthing_mcp_rs5tools9conflicts16resolve_conflict0s8_0B9_
FNDA:0,_RNCNCNvNtNtCs1zQjFe0mrqD_16syncthing_mcp_rs5tools9conflicts16resolve_conflict0s_0B9_
FNDA:6,_RNCNvNtNtCs1zQjFe0mrqD_16syncthing_mcp_rs5tools9conflicts14list_conflicts0B7_
FNDA:7,_RNCNvNtNtCs1zQjFe0mrqD_16syncthing_mcp_rs5tools9conflicts14scan_conflicts0B7_
FNDA:10,_RNCNvNtNtCs1zQjFe0mrqD_16syncthing_mcp_rs5tools9conflicts14scan_recursive0B7_
FNDA:3,_RNCNvNtNtCs1zQjFe0mrqD_16syncthing_mcp_rs5tools9conflicts15delete_conflict0B7_
FNDA:8,_RNCNvNtNtCs1zQjFe0mrqD_16syncthing_mcp_rs5tools9conflicts16resolve_conflict0B7_
FNDA:8,_RNCNvNtNtCs1zQjFe0mrqD_16syncthing_mcp_rs5tools9conflicts18format_system_time0B7_
FNDA:0,_RNCNvNtNtCs1zQjFe0mrqD_16syncthing_mcp_rs5tools9conflicts18format_system_times_0B7_
FNDA:21,_RNCNvNtNtCs1zQjFe0mrqD_16syncthing_mcp_rs5tools9conflicts23parse_conflict_filename0B7_
FNDA:6,_RNvNtNtCs1zQjFe0mrqD_16syncthing_mcp_rs5tools9conflicts14list_conflicts
FNDA:7,_RNvNtNtCs1zQjFe0mrqD_16syncthing_mcp_rs5tools9conflicts14scan_conflicts
FNDA:10,_RNvNtNtCs1zQjFe0mrqD_16syncthing_mcp_rs5tools9conflicts14scan_recursive
FNDA:3,_RNvNtNtCs1zQjFe0mrqD_16syncthing_mcp_rs5tools9conflicts15delete_conflict
FNDA:8,_RNvNtNtCs1zQjFe0mrqD_16syncthing_mcp_rs5tools9conflicts16resolve_conflict
FNDA:8,_RNvNtNtCs1zQjFe0mrqD_16syncthing_mcp_rs5tools9conflicts18format_system_time
FNDA:28,_RNvNtNtCs1zQjFe0mrqD_16syncthing_mcp_rs5tools9conflicts23parse_conflict_filename
FNF:54
FNH:33
DA:37,7
DA:38,7
DA:39,7
DA:40,6
DA:41,7
DA:48,20
DA:49,10
DA:50,0
DA:51,10
DA:53,10
DA:54,10
DA:55,10
DA:57,19
DA:58,0
DA:59,0
DA:60,11
DA:61,0
DA:62,0
DA:64,11
DA:65,3
DA:67,8
DA:68,8
DA:69,8
DA:71,5
DA:72,5
DA:73,5
DA:74,5
DA:76,5
DA:77,5
DA:78,3
DA:79,3
DA:80,3
DA:82,5
DA:83,3
DA:87,8
DA:88,10
DA:90,8
DA:91,8
DA:92,8
DA:93,8
DA:94,8
DA:95,8
DA:96,8
DA:98,28
DA:99,28
DA:100,22
DA:101,22
DA:102,22
DA:103,22
DA:105,22
DA:106,21
DA:108,1
DA:111,22
DA:112,22
DA:114,22
DA:115,22
DA:116,22
DA:117,22
DA:118,22
DA:119,22
DA:120,22
DA:121,22
DA:122,22
DA:123,22
DA:124,28
DA:127,6
DA:128,6
DA:129,6
DA:130,6
DA:131,6
DA:132,6
DA:133,6
DA:134,6
DA:136,6
DA:137,6
DA:139,6
DA:141,5
DA:142,2
DA:143,2
DA:144,2
DA:145,2
DA:146,2
DA:147,2
DA:148,3
DA:150,3
DA:151,3
DA:152,3
DA:153,3
DA:154,3
DA:155,3
DA:156,3
DA:157,3
DA:158,3
DA:159,3
DA:161,3
DA:162,3
DA:163,3
DA:164,3
DA:165,3
DA:167,3
DA:168,1
DA:172,1
DA:173,1
DA:174,1
DA:176,2
DA:177,2
DA:178,2
DA:179,3
DA:180,3
DA:181,3
DA:182,3
DA:185,3
DA:186,3
DA:187,3
DA:188,3
DA:189,3
DA:190,3
DA:191,6
DA:194,8
DA:195,8
DA:196,8
DA:197,8
DA:198,8
DA:199,8
DA:200,8
DA:201,8
DA:202,8
DA:203,8
DA:204,8
DA:206,8
DA:207,8
DA:208,0
DA:209,0
DA:210,8
DA:211,8
DA:212,8
DA:213,0
DA:214,0
DA:215,8
DA:217,8
DA:218,0
DA:219,0
DA:221,8
DA:222,8
DA:223,8
DA:225,8
DA:226,2
DA:227,2
DA:228,2
DA:229,0
DA:230,0
DA:231,2
DA:232,2
DA:233,2
DA:234,0
DA:235,0
DA:237,2
DA:238,2
DA:239,2
DA:240,2
DA:242,2
DA:243,2
DA:244,2
DA:245,2
DA:246,2
DA:247,2
DA:248,6
DA:250,6
DA:251,6
DA:252,3
DA:253,0
DA:254,0
DA:255,0
DA:256,0
DA:257,0
DA:258,0
DA:259,3
DA:260,3
DA:261,1
DA:262,0
DA:263,0
DA:264,0
DA:265,0
DA:266,0
DA:267,1
DA:268,1
DA:269,1
DA:270,1
DA:271,1
DA:272,1
DA:274,2
DA:275,2
DA:276,2
DA:277,0
DA:278,0
DA:279,0
DA:280,0
DA:281,0
DA:282,2
DA:283,2
DA:284,2
DA:285,2
DA:286,2
DA:287,2
DA:290,3
DA:291,3
DA:292,1
DA:293,1
DA:294,1
DA:295,1
DA:296,1
DA:297,1
DA:298,2
DA:299,2
DA:301,0
DA:302,0
DA:303,0
DA:304,0
DA:305,0
DA:306,0
DA:307,0
DA:308,0
DA:309,2
DA:310,2
DA:311,2
DA:312,2
DA:313,0
DA:314,0
DA:315,0
DA:316,0
DA:317,0
DA:318,2
DA:319,2
DA:320,2
DA:321,2
DA:322,2
DA:323,2
DA:325,0
DA:326,0
DA:327,0
DA:328,0
DA:330,8
DA:333,3
DA:334,3
DA:335,3
DA:336,3
DA:337,3
DA:338,3
DA:339,3
DA:340,3
DA:342,3
DA:343,3
DA:344,0
DA:345,0
DA:346,3
DA:347,3
DA:348,3
DA:349,0
DA:350,0
DA:351,3
DA:354,3
DA:355,0
DA:356,0
DA:357,0
DA:358,0
DA:359,3
DA:361,3
DA:362,3
DA:364,3
DA:365,1
DA:366,1
DA:367,1
DA:368,1
DA:369,1
DA:370,1
DA:371,2
DA:373,2
DA:374,1
DA:375,0
DA:376,0
DA:377,1
DA:378,1
DA:379,1
DA:380,1
DA:381,1
DA:382,1
DA:384,1
DA:385,0
DA:386,0
DA:387,1
DA:388,1
DA:389,1
DA:390,1
DA:391,1
DA:392,1
DA:394,3
DA:401,1
DA:402,1
DA:403,1
DA:404,1
DA:405,1
DA:406,1
DA:407,1
DA:408,1
DA:412,1
DA:415,1
DA:416,1
DA:417,1
DA:418,1
DA:419,1
DA:420,1
DA:421,1
DA:422,1
DA:425,1
DA:426,1
DA:427,1
DA:428,1
DA:429,1
DA:430,1
DA:433,1
DA:434,1
DA:435,1
DA:436,1
DA:437,1
DA:440,1
DA:441,1
DA:442,1
DA:445,1
DA:446,1
DA:447,1
DA:448,1
DA:451,1
DA:452,1
DA:453,1
DA:454,1
DA:455,1
DA:458,1
DA:459,1
DA:460,1
DA:461,1
DA:462,1
DA:463,1
DA:464,1
DA:465,1
DA:466,1
DA:467,1
DA:468,1
DA:470,1
DA:471,1
DA:474,1
DA:475,1
DA:477,1
DA:478,1
DA:479,1
DA:480,1
DA:481,1
DA:482,1
DA:485,1
DA:489,1
DA:490,1
DA:493,1
DA:494,1
DA:495,1
DA:496,1
DA:497,1
DA:499,1
DA:500,1
DA:501,1
DA:502,1
DA:503,1
DA:504,1
DA:505,1
DA:506,1
DA:507,1
DA:508,1
DA:509,1
DA:511,1
DA:512,1
DA:513,1
DA:514,1
DA:515,1
DA:516,1
DA:517,1
DA:518,1
DA:521,1
DA:522,1
DA:523,1
DA:524,1
DA:525,1
DA:528,1
DA:532,1
DA:533,1
DA:535,1
DA:536,1
DA:537,1
DA:538,1
DA:539,1
DA:540,1
DA:541,1
DA:542,1
DA:543,1
DA:544,1
DA:545,1
DA:547,1
DA:548,1
DA:549,1
DA:550,1
DA:551,1
DA:552,1
DA:553,1
DA:554,1
DA:557,1
DA:558,1
DA:559,1
DA:560,1
DA:563,1
DA:564,1
DA:565,1
DA:566,1
DA:567,1
DA:569,1
DA:570,1
DA:572,1
DA:573,1
DA:574,1
DA:575,1
DA:576,1
DA:577,1
DA:580,1
DA:581,1
DA:582,1
DA:583,1
DA:585,1
DA:586,1
DA:587,1
DA:590,1
DA:591,1
DA:592,1
DA:593,1
DA:594,1
DA:596,1
DA:597,1
DA:599,1
DA:600,1
DA:601,1
DA:602,1
DA:603,1
DA:604,1
DA:607,1
DA:608,1
DA:609,1
DA:610,1
DA:612,1
DA:613,1
DA:614,1
DA:617,1
DA:618,1
DA:621,1
DA:622,1
DA:623,1
DA:624,1
DA:625,1
DA:627,1
DA:628,1
DA:630,1
DA:631,1
DA:632,1
DA:633,1
DA:634,1
DA:635,1
DA:638,1
DA:639,1
DA:640,1
DA:641,1
DA:643,1
DA:644,1
DA:645,1
DA:648,1
DA:649,1
DA:650,1
DA:651,1
DA:653,1
DA:655,1
DA:656,1
DA:657,1
DA:658,1
DA:659,1
DA:662,1
DA:663,1
DA:664,1
DA:666,1
DA:667,1
BRF:0
BRH:0
LF:549
LH:453
end_of_record
SF:/home/nicholas/git/nicholaswilde/syncthing-mcp-rs/src/tools/connectivity_watchdog.rs
FN:198,_RNCNvMs_NtNtCsk1nGwz09EVE_16syncthing_mcp_rs5tools21connectivity_watchdogNtB6_19ConnectivityMonitor14is_all_offline0Ba_
FN:130,_RNCNvMs_NtNtCsk1nGwz09EVE_16syncthing_mcp_rs5tools21connectivity_watchdogNtB6_19ConnectivityMonitor5check0Ba_
FN:142,_RNCNvMs_NtNtCsk1nGwz09EVE_16syncthing_mcp_rs5tools21connectivity_watchdogNtB6_19ConnectivityMonitor5checks_0Ba_
FN:202,_RNvMs_NtNtCsk1nGwz09EVE_16syncthing_mcp_rs5tools21connectivity_watchdogNtB4_19ConnectivityMonitor10get_alerts
FN:184,_RNvMs_NtNtCsk1nGwz09EVE_16syncthing_mcp_rs5tools21connectivity_watchdogNtB4_19ConnectivityMonitor11get_backoff
FN:177,_RNvMs_NtNtCsk1nGwz09EVE_16syncthing_mcp_rs5tools21connectivity_watchdogNtB4_19ConnectivityMonitor12record_retry
FN:153,_RNvMs_NtNtCsk1nGwz09EVE_16syncthing_mcp_rs5tools21connectivity_watchdogNtB4_19ConnectivityMonitor12should_retry
FN:194,_RNvMs_NtNtCsk1nGwz09EVE_16syncthing_mcp_rs5tools21connectivity_watchdogNtB4_19ConnectivityMonitor14is_all_offline
FN:69,_RNvMs_NtNtCsk1nGwz09EVE_16syncthing_mcp_rs5tools21connectivity_watchdogNtB4_19ConnectivityMonitor3new
FN:101,_RNvMs_NtNtCsk1nGwz09EVE_16syncthing_mcp_rs5tools21connectivity_watchdogNtB4_19ConnectivityMonitor5check
FN:78,_RNvMs_NtNtCsk1nGwz09EVE_16syncthing_mcp_rs5tools21connectivity_watchdogNtB4_19ConnectivityMonitor6update
FN:16,_RNvXNtNtCsk1nGwz09EVE_16syncthing_mcp_rs5tools21connectivity_watchdogNtB2_22ConnectivityThresholdsNtNtCs8nPosuWgJFh_4core7default7Default7default
FN:202,_RNvMs_NtNtCs1zQjFe0mrqD_16syncthing_mcp_rs5tools21connectivity_watchdogNtB4_19ConnectivityMonitor10get_alerts
FN:184,_RNvMs_NtNtCs1zQjFe0mrqD_16syncthing_mcp_rs5tools21connectivity_watchdogNtB4_19ConnectivityMonitor11get_backoff
FN:177,_RNvMs_NtNtCs1zQjFe0mrqD_16syncthing_mcp_rs5tools21connectivity_watchdogNtB4_19ConnectivityMonitor12record_retry
FN:153,_RNvMs_NtNtCs1zQjFe0mrqD_16syncthing_mcp_rs5tools21connectivity_watchdogNtB4_19ConnectivityMonitor12should_retry
FN:194,_RNvMs_NtNtCs1zQjFe0mrqD_16syncthing_mcp_rs5tools21connectivity_watchdogNtB4_19ConnectivityMonitor14is_all_offline
FN:69,_RNvMs_NtNtCs1zQjFe0mrqD_16syncthing_mcp_rs5tools21connectivity_watchdogNtB4_19ConnectivityMonitor3new
FN:101,_RNvMs_NtNtCs1zQjFe0mrqD_16syncthing_mcp_rs5tools21connectivity_watchdogNtB4_19ConnectivityMonitor5check
FN:78,_RNvMs_NtNtCs1zQjFe0mrqD_16syncthing_mcp_rs5tools21connectivity_watchdogNtB4_19ConnectivityMonitor6update
FN:16,_RNvXNtNtCs1zQjFe0mrqD_16syncthing_mcp_rs5tools21connectivity_watchdogNtB2_22ConnectivityThresholdsNtNtCs8nPosuWgJFh_4core7default7Default7default
FN:198,_RNCNvMs_NtNtCs1zQjFe0mrqD_16syncthing_mcp_rs5tools21connectivity_watchdogNtB6_19ConnectivityMonitor14is_all_offline0Ba_
FN:130,_RNCNvMs_NtNtCs1zQjFe0mrqD_16syncthing_mcp_rs5tools21connectivity_watchdogNtB6_19ConnectivityMonitor5check0Ba_
FN:142,_RNCNvMs_NtNtCs1zQjFe0mrqD_16syncthing_mcp_rs5tools21connectivity_watchdogNtB6_19ConnectivityMonitor5checks_0Ba_
FNDA:0,_RNCNvMs_NtNtCsk1nGwz09EVE_16syncthing_mcp_rs5tools21connectivity_watchdogNtB6_19ConnectivityMonitor14is_all_offline0Ba_
FNDA:0,_RNCNvMs_NtNtCsk1nGwz09EVE_16syncthing_mcp_rs5tools21connectivity_watchdogNtB6_19ConnectivityMonitor5check0Ba_
FNDA:0,_RNCNvMs_NtNtCsk1nGwz09EVE_16syncthing_mcp_rs5tools21connectivity_watchdogNtB6_19ConnectivityMonitor5checks_0Ba_
FNDA:0,_RNvMs_NtNtCsk1nGwz09EVE_16syncthing_mcp_rs5tools21connectivity_watchdogNtB4_19ConnectivityMonitor10get_alerts
FNDA:0,_RNvMs_NtNtCsk1nGwz09EVE_16syncthing_mcp_rs5tools21connectivity_watchdogNtB4_19ConnectivityMonitor11get_backoff
FNDA:0,_RNvMs_NtNtCsk1nGwz09EVE_16syncthing_mcp_rs5tools21connectivity_watchdogNtB4_19ConnectivityMonitor12record_retry
FNDA:0,_RNvMs_NtNtCsk1nGwz09EVE_16syncthing_mcp_rs5tools21connectivity_watchdogNtB4_19ConnectivityMonitor12should_retry
FNDA:0,_RNvMs_NtNtCsk1nGwz09EVE_16syncthing_mcp_rs5tools21connectivity_watchdogNtB4_19ConnectivityMonitor14is_all_offline
FNDA:0,_RNvMs_NtNtCsk1nGwz09EVE_16syncthing_mcp_rs5tools21connectivity_watchdogNtB4_19ConnectivityMonitor3new
FNDA:0,_RNvMs_NtNtCsk1nGwz09EVE_16syncthing_mcp_rs5tools21connectivity_watchdogNtB4_19ConnectivityMonitor5check
FNDA:0,_RNvMs_NtNtCsk1nGwz09EVE_16syncthing_mcp_rs5tools21connectivity_watchdogNtB4_19ConnectivityMonitor6update
FNDA:0,_RNvXNtNtCsk1nGwz09EVE_16syncthing_mcp_rs5tools21connectivity_watchdogNtB2_22ConnectivityThresholdsNtNtCs8nPosuWgJFh_4core7default7Default7default
FNDA:6,_RNvMs_NtNtCs1zQjFe0mrqD_16syncthing_mcp_rs5tools21connectivity_watchdogNtB4_19ConnectivityMonitor10get_alerts
FNDA:6,_RNvMs_NtNtCs1zQjFe0mrqD_16syncthing_mcp_rs5tools21connectivity_watchdogNtB4_19ConnectivityMonitor11get_backoff
FNDA:2,_RNvMs_NtNtCs1zQjFe0mrqD_16syncthing_mcp_rs5tools21connectivity_watchdogNtB4_19ConnectivityMonitor12record_retry
FNDA:11,_RNvMs_NtNtCs1zQjFe0mrqD_16syncthing_mcp_rs5tools21connectivity_watchdogNtB4_19ConnectivityMonitor12should_retry
FNDA:13,_RNvMs_NtNtCs1zQjFe0mrqD_16syncthing_mcp_rs5tools21connectivity_watchdogNtB4_19ConnectivityMonitor14is_all_offline
FNDA:8,_RNvMs_NtNtCs1zQjFe0mrqD_16syncthing_mcp_rs5tools21connectivity_watchdogNtB4_19ConnectivityMonitor3new
FNDA:14,_RNvMs_NtNtCs1zQjFe0mrqD_16syncthing_mcp_rs5tools21connectivity_watchdogNtB4_19ConnectivityMonitor5check
FNDA:11,_RNvMs_NtNtCs1zQjFe0mrqD_16syncthing_mcp_rs5tools21connectivity_watchdogNtB4_19ConnectivityMonitor6update
FNDA:5,_RNvXNtNtCs1zQjFe0mrqD_16syncthing_mcp_rs5tools21connectivity_watchdogNtB2_22ConnectivityThresholdsNtNtCs8nPosuWgJFh_4core7default7Default7default
FNDA:13,_RNCNvMs_NtNtCs1zQjFe0mrqD_16syncthing_mcp_rs5tools21connectivity_watchdogNtB6_19ConnectivityMonitor14is_all_offline0Ba_
FNDA:1,_RNCNvMs_NtNtCs1zQjFe0mrqD_16syncthing_mcp_rs5tools21connectivity_watchdogNtB6_19ConnectivityMonitor5check0Ba_
FNDA:1,_RNCNvMs_NtNtCs1zQjFe0mrqD_16syncthing_mcp_rs5tools21connectivity_watchdogNtB6_19ConnectivityMonitor5checks_0Ba_
FNF:12
FNH:12
DA:16,5
DA:17,5
DA:18,5
DA:19,5
DA:20,5
DA:21,5
DA:22,5
DA:69,8
DA:70,8
DA:71,8
DA:72,8
DA:73,8
DA:74,8
DA:75,8
DA:78,11
DA:79,11
DA:80,5
DA:81,1
DA:82,1
DA:83,1
DA:84,4
DA:85,5
DA:86,5
DA:87,6
DA:88,6
DA:89,6
DA:90,6
DA:91,6
DA:92,6
DA:93,6
DA:94,6
DA:95,6
DA:96,6
DA:97,6
DA:98,11
DA:101,14
DA:102,14
DA:103,14
DA:104,14
DA:105,14
DA:106,14
DA:108,14
DA:110,14
DA:111,12
DA:113,7
DA:114,7
DA:115,4
DA:116,4
DA:117,4
DA:118,3
DA:119,3
DA:121,7
DA:122,7
DA:123,7
DA:124,7
DA:125,7
DA:128,14
DA:129,4
DA:130,4
DA:131,0
DA:132,0
DA:133,4
DA:134,4
DA:135,4
DA:136,4
DA:137,4
DA:138,4
DA:139,4
DA:140,0
DA:142,10
DA:145,14
DA:146,14
DA:147,14
DA:148,14
DA:149,14
DA:153,11
DA:156,11
DA:157,1
DA:158,10
DA:160,10
DA:161,9
DA:162,9
DA:164,5
DA:165,4
DA:166,4
DA:169,1
DA:171,4
DA:172,1
DA:173,5
DA:174,11
DA:177,2
DA:178,2
DA:179,2
DA:180,2
DA:181,2
DA:182,2
DA:184,6
DA:185,6
DA:186,0
DA:187,6
DA:188,6
DA:189,6
DA:190,6
DA:191,6
DA:194,13
DA:195,13
DA:196,2
DA:197,11
DA:198,13
DA:199,13
DA:202,6
DA:203,6
DA:204,6
BRF:0
BRH:0
LF:116
LH:112
end_of_record
SF:/home/nicholas/git/nicholaswilde/syncthing-mcp-rs/src/tools/dashboard.rs
FN:90,_RNCNCNvNtNtCsk1nGwz09EVE_16syncthing_mcp_rs5tools9dashboard20get_global_dashboard00B9_
FN:83,_RNCNvNtNtCsk1nGwz09EVE_16syncthing_mcp_rs5tools9dashboard20get_global_dashboard0B7_
FN:153,_RNCNvNtNtCsk1nGwz09EVE_16syncthing_mcp_rs5tools9dashboard29fetch_instance_dashboard_data0B7_
FN:240,_RNvNtNtCsk1nGwz09EVE_16syncthing_mcp_rs5tools9dashboard11format_size
FN:79,_RNvNtNtCsk1nGwz09EVE_16syncthing_mcp_rs5tools9dashboard20get_global_dashboard
FN:199,_RNvNtNtCsk1nGwz09EVE_16syncthing_mcp_rs5tools9dashboard21format_dashboard_text
FN:190,_RNvNtNtCsk1nGwz09EVE_16syncthing_mcp_rs5tools9dashboard28calculate_overall_completion
FN:150,_RNvNtNtCsk1nGwz09EVE_16syncthing_mcp_rs5tools9dashboard29fetch_instance_dashboard_data
FN:240,_RNvNtNtCs1zQjFe0mrqD_16syncthing_mcp_rs5tools9dashboard11format_size
FN:79,_RNvNtNtCs1zQjFe0mrqD_16syncthing_mcp_rs5tools9dashboard20get_global_dashboard
FN:199,_RNvNtNtCs1zQjFe0mrqD_16syncthing_mcp_rs5tools9dashboard21format_dashboard_text
FN:190,_RNvNtNtCs1zQjFe0mrqD_16syncthing_mcp_rs5tools9dashboard28calculate_overall_completion
FN:150,_RNvNtNtCs1zQjFe0mrqD_16syncthing_mcp_rs5tools9dashboard29fetch_instance_dashboard_data
FN:90,_RNCNCNvNtNtCs1zQjFe0mrqD_16syncthing_mcp_rs5tools9dashboard20get_global_dashboard00B9_
FN:83,_RNCNvNtNtCs1zQjFe0mrqD_16syncthing_mcp_rs5tools9dashboard20get_global_dashboard0B7_
FN:153,_RNCNvNtNtCs1zQjFe0mrqD_16syncthing_mcp_rs5tools9dashboard29fetch_instance_dashboard_data0B7_
FNDA:0,_RNCNCNvNtNtCsk1nGwz09EVE_16syncthing_mcp_rs5tools9dashboard20get_global_dashboard00B9_
FNDA:0,_RNCNvNtNtCsk1nGwz09EVE_16syncthing_mcp_rs5tools9dashboard20get_global_dashboard0B7_
FNDA:0,_RNCNvNtNtCsk1nGwz09EVE_16syncthing_mcp_rs5tools9dashboard29fetch_instance_dashboard_data0B7_
FNDA:0,_RNvNtNtCsk1nGwz09EVE_16syncthing_mcp_rs5tools9dashboard11format_size
FNDA:0,_RNvNtNtCsk1nGwz09EVE_16syncthing_mcp_rs5tools9dashboard20get_global_dashboard
FNDA:0,_RNvNtNtCsk1nGwz09EVE_16syncthing_mcp_rs5tools9dashboard21format_dashboard_text
FNDA:0,_RNvNtNtCsk1nGwz09EVE_16syncthing_mcp_rs5tools9dashboard28calculate_overall_completion
FNDA:0,_RNvNtNtCsk1nGwz09EVE_16syncthing_mcp_rs5tools9dashboard29fetch_instance_dashboard_data
FNDA:8,_RNvNtNtCs1zQjFe0mrqD_16syncthing_mcp_rs5tools9dashboard11format_size
FNDA:2,_RNvNtNtCs1zQjFe0mrqD_16syncthing_mcp_rs5tools9dashboard20get_global_dashboard
FNDA:2,_RNvNtNtCs1zQjFe0mrqD_16syncthing_mcp_rs5tools9dashboard21format_dashboard_text
FNDA:2,_RNvNtNtCs1zQjFe0mrqD_16syncthing_mcp_rs5tools9dashboard28calculate_overall_completion
FNDA:2,_RNvNtNtCs1zQjFe0mrqD_16syncthing_mcp_rs5tools9dashboard29fetch_instance_dashboard_data
FNDA:0,_RNCNCNvNtNtCs1zQjFe0mrqD_16syncthing_mcp_rs5tools9dashboard20get_global_dashboard00B9_
FNDA:2,_RNCNvNtNtCs1zQjFe0mrqD_16syncthing_mcp_rs5tools9dashboard20get_global_dashboard0B7_
FNDA:2,_RNCNvNtNtCs1zQjFe0mrqD_16syncthing_mcp_rs5tools9dashboard29fetch_instance_dashboard_data0B7_
FNF:8
FNH:7
DA:79,2
DA:80,2
DA:81,2
DA:82,2
DA:83,2
DA:84,2
DA:86,2
DA:87,2
DA:88,2
DA:89,2
DA:90,2
DA:91,2
DA:92,2
DA:95,2
DA:97,2
DA:98,2
DA:99,2
DA:100,2
DA:101,2
DA:102,2
DA:103,2
DA:105,2
DA:106,2
DA:107,2
DA:108,2
DA:109,1
DA:110,1
DA:111,2
DA:112,2
DA:113,2
DA:115,0
DA:116,0
DA:117,0
DA:118,0
DA:119,0
DA:120,0
DA:121,0
DA:125,2
DA:126,2
DA:127,2
DA:128,2
DA:129,2
DA:130,2
DA:131,2
DA:132,2
DA:133,2
DA:135,2
DA:136,2
DA:137,2
DA:138,2
DA:139,2
DA:141,2
DA:142,2
DA:143,2
DA:144,2
DA:145,2
DA:146,2
DA:147,2
DA:148,2
DA:150,2
DA:151,2
DA:152,2
DA:153,2
DA:154,2
DA:155,2
DA:156,1
DA:158,1
DA:161,2
DA:162,2
DA:163,2
DA:165,2
DA:166,1
DA:167,1
DA:168,1
DA:169,1
DA:170,1
DA:171,1
DA:173,1
DA:175,2
DA:176,2
DA:177,2
DA:178,2
DA:179,2
DA:180,2
DA:181,2
DA:182,2
DA:183,2
DA:184,2
DA:185,2
DA:186,2
DA:187,2
DA:188,2
DA:190,2
DA:191,2
DA:192,2
DA:193,0
DA:195,2
DA:197,2
DA:199,2
DA:200,2
DA:202,2
DA:203,2
DA:204,2
DA:205,2
DA:206,2
DA:207,2
DA:208,2
DA:209,2
DA:210,2
DA:212,2
DA:213,2
DA:214,2
DA:215,1
DA:217,1
DA:219,2
DA:220,2
DA:221,2
DA:222,2
DA:223,2
DA:224,2
DA:225,2
DA:226,2
DA:227,2
DA:230,2
DA:231,0
DA:232,0
DA:233,0
DA:234,0
DA:235,2
DA:237,2
DA:238,2
DA:240,8
DA:245,8
DA:246,0
DA:247,8
DA:248,0
DA:249,8
DA:250,2
DA:252,6
DA:254,8
BRF:0
BRH:0
LF:143
LH:128
end_of_record
SF:/home/nicholas/git/nicholaswilde/syncthing-mcp-rs/src/tools/devices.rs
FN:7,_RNvNtNtCsk1nGwz09EVE_16syncthing_mcp_rs5tools7devices14manage_devices
FN:155,_RNvNtNtCsk1nGwz09EVE_16syncthing_mcp_rs5tools7devices16get_device_stats
FN:54,_RNCNCNvNtNtCsk1nGwz09EVE_16syncthing_mcp_rs5tools7devices14manage_devices00B9_
FN:86,_RNCNCNvNtNtCsk1nGwz09EVE_16syncthing_mcp_rs5tools7devices14manage_devices0s0_0B9_
FN:98,_RNCNCNvNtNtCsk1nGwz09EVE_16syncthing_mcp_rs5tools7devices14manage_devices0s1_0B9_
FN:112,_RNCNCNvNtNtCsk1nGwz09EVE_16syncthing_mcp_rs5tools7devices14manage_devices0s2_0B9_
FN:126,_RNCNCNvNtNtCsk1nGwz09EVE_16syncthing_mcp_rs5tools7devices14manage_devices0s3_0B9_
FN:138,_RNCNCNvNtNtCsk1nGwz09EVE_16syncthing_mcp_rs5tools7devices14manage_devices0s4_0B9_
FN:73,_RNCNCNvNtNtCsk1nGwz09EVE_16syncthing_mcp_rs5tools7devices14manage_devices0s_0B9_
FN:11,_RNCNvNtNtCsk1nGwz09EVE_16syncthing_mcp_rs5tools7devices14manage_devices0B7_
FN:159,_RNCNvNtNtCsk1nGwz09EVE_16syncthing_mcp_rs5tools7devices16get_device_stats0B7_
FN:7,_RNvNtNtCs1zQjFe0mrqD_16syncthing_mcp_rs5tools7devices14manage_devices
FN:155,_RNvNtNtCs1zQjFe0mrqD_16syncthing_mcp_rs5tools7devices16get_device_stats
FN:54,_RNCNCNvNtNtCs1zQjFe0mrqD_16syncthing_mcp_rs5tools7devices14manage_devices00B9_
FN:86,_RNCNCNvNtNtCs1zQjFe0mrqD_16syncthing_mcp_rs5tools7devices14manage_devices0s0_0B9_
FN:98,_RNCNCNvNtNtCs1zQjFe0mrqD_16syncthing_mcp_rs5tools7devices14manage_devices0s1_0B9_
FN:112,_RNCNCNvNtNtCs1zQjFe0mrqD_16syncthing_mcp_rs5tools7devices14manage_devices0s2_0B9_
FN:126,_RNCNCNvNtNtCs1zQjFe0mrqD_16syncthing_mcp_rs5tools7devices14manage_devices0s3_0B9_
FN:138,_RNCNCNvNtNtCs1zQjFe0mrqD_16syncthing_mcp_rs5tools7devices14manage_devices0s4_0B9_
FN:73,_RNCNCNvNtNtCs1zQjFe0mrqD_16syncthing_mcp_rs5tools7devices14manage_devices0s_0B9_
FN:11,_RNCNvNtNtCs1zQjFe0mrqD_16syncthing_mcp_rs5tools7devices14manage_devices0B7_
FN:159,_RNCNvNtNtCs1zQjFe0mrqD_16syncthing_mcp_rs5tools7devices16get_device_stats0B7_
FNDA:0,_RNvNtNtCsk1nGwz09EVE_16syncthing_mcp_rs5tools7devices14manage_devices
FNDA:0,_RNvNtNtCsk1nGwz09EVE_16syncthing_mcp_rs5tools7devices16get_device_stats
FNDA:0,_RNCNCNvNtNtCsk1nGwz09EVE_16syncthing_mcp_rs5tools7devices14manage_devices00B9_
FNDA:0,_RNCNCNvNtNtCsk1nGwz09EVE_16syncthing_mcp_rs5tools7devices14manage_devices0s0_0B9_
FNDA:0,_RNCNCNvNtNtCsk1nGwz09EVE_16syncthing_mcp_rs5tools7devices14manage_devices0s1_0B9_
FNDA:0,_RNCNCNvNtNtCsk1nGwz09EVE_16syncthing_mcp_rs5tools7devices14manage_devices0s2_0B9_
FNDA:0,_RNCNCNvNtNtCsk1nGwz09EVE_16syncthing_mcp_rs5tools7devices14manage_devices0s3_0B9_
FNDA:0,_RNCNCNvNtNtCsk1nGwz09EVE_16syncthing_mcp_rs5tools7devices14manage_devices0s4_0B9_
FNDA:0,_RNCNCNvNtNtCsk1nGwz09EVE_16syncthing_mcp_rs5tools7devices14manage_devices0s_0B9_
FNDA:0,_RNCNvNtNtCsk1nGwz09EVE_16syncthing_mcp_rs5tools7devices14manage_devices0B7_
FNDA:0,_RNCNvNtNtCsk1nGwz09EVE_16syncthing_mcp_rs5tools7devices16get_device_stats0B7_
FNDA:14,_RNvNtNtCs1zQjFe0mrqD_16syncthing_mcp_rs5tools7devices14manage_devices
FNDA:1,_RNvNtNtCs1zQjFe0mrqD_16syncthing_mcp_rs5tools7devices16get_device_stats
FNDA:0,_RNCNCNvNtNtCs1zQjFe0mrqD_16syncthing_mcp_rs5tools7devices14manage_devices00B9_
FNDA:0,_RNCNCNvNtNtCs1zQjFe0mrqD_16syncthing_mcp_rs5tools7devices14manage_devices0s0_0B9_
FNDA:0,_RNCNCNvNtNtCs1zQjFe0mrqD_16syncthing_mcp_rs5tools7devices14manage_devices0s1_0B9_
FNDA:0,_RNCNCNvNtNtCs1zQjFe0mrqD_16syncthing_mcp_rs5tools7devices14manage_devices0s2_0B9_
FNDA:0,_RNCNCNvNtNtCs1zQjFe0mrqD_16syncthing_mcp_rs5tools7devices14manage_devices0s3_0B9_
FNDA:0,_RNCNCNvNtNtCs1zQjFe0mrqD_16syncthing_mcp_rs5tools7devices14manage_devices0s4_0B9_
FNDA:1,_RNCNCNvNtNtCs1zQjFe0mrqD_16syncthing_mcp_rs5tools7devices14manage_devices0s_0B9_
FNDA:14,_RNCNvNtNtCs1zQjFe0mrqD_16syncthing_mcp_rs5tools7devices14manage_devices0B7_
FNDA:1,_RNCNvNtNtCs1zQjFe0mrqD_16syncthing_mcp_rs5tools7devices16get_device_stats0B7_
FNF:11
FNH:5
DA:7,14
DA:8,14
DA:9,14
DA:10,14
DA:11,14
DA:12,14
DA:14,14
DA:15,14
DA:16,2
DA:17,2
DA:18,2
DA:19,2
DA:20,2
DA:21,2
DA:22,2
DA:23,2
DA:24,2
DA:25,2
DA:26,2
DA:27,2
DA:28,2
DA:29,2
DA:30,2
DA:31,2
DA:33,12
DA:34,2
DA:35,2
DA:36,2
DA:37,1
DA:38,1
DA:39,1
DA:40,1
DA:41,1
DA:42,1
DA:43,1
DA:44,1
DA:46,2
DA:47,2
DA:48,2
DA:49,2
DA:50,2
DA:51,2
DA:53,10
DA:54,1
DA:55,0
DA:56,0
DA:57,1
DA:60,1
DA:63,1
DA:65,1
DA:66,1
DA:67,1
DA:68,1
DA:69,1
DA:70,1
DA:72,9
DA:73,2
DA:74,1
DA:75,1
DA:76,1
DA:77,1
DA:78,1
DA:79,1
DA:80,1
DA:81,1
DA:82,1
DA:83,1
DA:85,7
DA:86,1
DA:87,0
DA:88,0
DA:89,1
DA:90,1
DA:91,1
DA:92,1
DA:93,1
DA:94,1
DA:95,1
DA:97,6
DA:98,1
DA:99,0
DA:100,0
DA:101,1
DA:102,1
DA:103,1
DA:104,1
DA:105,1
DA:106,1
DA:107,1
DA:108,1
DA:109,1
DA:111,5
DA:112,1
DA:113,0
DA:114,0
DA:115,1
DA:116,1
DA:117,1
DA:118,1
DA:119,1
DA:120,1
DA:121,1
DA:122,1
DA:123,1
DA:125,4
DA:126,2
DA:127,0
DA:128,0
DA:129,2
DA:130,2
DA:131,1
DA:132,1
DA:133,1
DA:134,1
DA:135,1
DA:136,1
DA:138,1
DA:139,1
DA:140,1
DA:141,1
DA:142,1
DA:143,1
DA:144,1
DA:147,2
DA:148,2
DA:149,2
DA:150,2
DA:152,14
DA:155,1
DA:156,1
DA:157,1
DA:158,1
DA:159,1
DA:160,1
DA:162,1
DA:163,1
DA:164,1
DA:165,1
DA:166,1
DA:167,1
DA:168,1
DA:169,1
DA:170,1
DA:172,1
DA:173,1
DA:174,1
DA:175,1
DA:176,1
DA:177,1
DA:178,1
BRF:0
BRH:0
LF:165
LH:144
end_of_record
SF:/home/nicholas/git/nicholaswilde/syncthing-mcp-rs/src/tools/diff.rs
FN:42,_RNvNtNtCsk1nGwz09EVE_16syncthing_mcp_rs5tools4diff13get_json_diff
FN:26,_RNvNtNtCsk1nGwz09EVE_16syncthing_mcp_rs5tools4diff13get_text_diff
FN:54,_RNvNtNtCsk1nGwz09EVE_16syncthing_mcp_rs5tools4diff13get_yaml_diff
FN:102,_RNvNtNtCsk1nGwz09EVE_16syncthing_mcp_rs5tools4diff14diff_conflicts
FN:152,_RNvNtNtCsk1nGwz09EVE_16syncthing_mcp_rs5tools4diff22get_resolution_preview
FN:161,_RNvNtNtCsk1nGwz09EVE_16syncthing_mcp_rs5tools4diff27preview_conflict_resolution
FN:67,_RNvNtNtCsk1nGwz09EVE_16syncthing_mcp_rs5tools4diff8get_diff
FN:109,_RNCNCNvNtNtCsk1nGwz09EVE_16syncthing_mcp_rs5tools4diff14diff_conflicts00B9_
FN:116,_RNCNCNvNtNtCsk1nGwz09EVE_16syncthing_mcp_rs5tools4diff14diff_conflicts0s0_0B9_
FN:123,_RNCNCNvNtNtCsk1nGwz09EVE_16syncthing_mcp_rs5tools4diff14diff_conflicts0s1_0B9_
FN:132,_RNCNCNvNtNtCsk1nGwz09EVE_16syncthing_mcp_rs5tools4diff14diff_conflicts0s2_0B9_
FN:137,_RNCNCNvNtNtCsk1nGwz09EVE_16syncthing_mcp_rs5tools4diff14diff_conflicts0s3_0B9_
FN:113,_RNCNCNvNtNtCsk1nGwz09EVE_16syncthing_mcp_rs5tools4diff14diff_conflicts0s_0B9_
FN:168,_RNCNCNvNtNtCsk1nGwz09EVE_16syncthing_mcp_rs5tools4diff27preview_conflict_resolution00B9_
FN:174,_RNCNCNvNtNtCsk1nGwz09EVE_16syncthing_mcp_rs5tools4diff27preview_conflict_resolution0s0_0B9_
FN:177,_RNCNCNvNtNtCsk1nGwz09EVE_16syncthing_mcp_rs5tools4diff27preview_conflict_resolution0s1_0B9_
FN:184,_RNCNCNvNtNtCsk1nGwz09EVE_16syncthing_mcp_rs5tools4diff27preview_conflict_resolution0s2_0B9_
FN:193,_RNCNCNvNtNtCsk1nGwz09EVE_16syncthing_mcp_rs5tools4diff27preview_conflict_resolution0s3_0B9_
FN:198,_RNCNCNvNtNtCsk1nGwz09EVE_16syncthing_mcp_rs5tools4diff27preview_conflict_resolution0s4_0B9_
FN:171,_RNCNCNvNtNtCsk1nGwz09EVE_16syncthing_mcp_rs5tools4diff27preview_conflict_resolution0s_0B9_
FN:106,_RNCNvNtNtCsk1nGwz09EVE_16syncthing_mcp_rs5tools4diff14diff_conflicts0B7_
FN:165,_RNCNvNtNtCsk1nGwz09EVE_16syncthing_mcp_rs5tools4diff27preview_conflict_resolution0B7_
FN:42,_RNvNtNtCs1zQjFe0mrqD_16syncthing_mcp_rs5tools4diff13get_json_diff
FN:26,_RNvNtNtCs1zQjFe0mrqD_16syncthing_mcp_rs5tools4diff13get_text_diff
FN:54,_RNvNtNtCs1zQjFe0mrqD_16syncthing_mcp_rs5tools4diff13get_yaml_diff
FN:102,_RNvNtNtCs1zQjFe0mrqD_16syncthing_mcp_rs5tools4diff14diff_conflicts
FN:152,_RNvNtNtCs1zQjFe0mrqD_16syncthing_mcp_rs5tools4diff22get_resolution_preview
FN:161,_RNvNtNtCs1zQjFe0mrqD_16syncthing_mcp_rs5tools4diff27preview_conflict_resolution
FN:67,_RNvNtNtCs1zQjFe0mrqD_16syncthing_mcp_rs5tools4diff8get_diff
FN:109,_RNCNCNvNtNtCs1zQjFe0mrqD_16syncthing_mcp_rs5tools4diff14diff_conflicts00B9_
FN:116,_RNCNCNvNtNtCs1zQjFe0mrqD_16syncthing_mcp_rs5tools4diff14diff_conflicts0s0_0B9_
FN:123,_RNCNCNvNtNtCs1zQjFe0mrqD_16syncthing_mcp_rs5tools4diff14diff_conflicts0s1_0B9_
FN:132,_RNCNCNvNtNtCs1zQjFe0mrqD_16syncthing_mcp_rs5tools4diff14diff_conflicts0s2_0B9_
FN:137,_RNCNCNvNtNtCs1zQjFe0mrqD_16syncthing_mcp_rs5tools4diff14diff_conflicts0s3_0B9_
FN:113,_RNCNCNvNtNtCs1zQjFe0mrqD_16syncthing_mcp_rs5tools4diff14diff_conflicts0s_0B9_
FN:168,_RNCNCNvNtNtCs1zQjFe0mrqD_16syncthing_mcp_rs5tools4diff27preview_conflict_resolution00B9_
FN:174,_RNCNCNvNtNtCs1zQjFe0mrqD_16syncthing_mcp_rs5tools4diff27preview_conflict_resolution0s0_0B9_
FN:177,_RNCNCNvNtNtCs1zQjFe0mrqD_16syncthing_mcp_rs5tools4diff27preview_conflict_resolution0s1_0B9_
FN:184,_RNCNCNvNtNtCs1zQjFe0mrqD_16syncthing_mcp_rs5tools4diff27preview_conflict_resolution0s2_0B9_
FN:193,_RNCNCNvNtNtCs1zQjFe0mrqD_16syncthing_mcp_rs5tools4diff27preview_conflict_resolution0s3_0B9_
FN:198,_RNCNCNvNtNtCs1zQjFe0mrqD_16syncthing_mcp_rs5tools4diff27preview_conflict_resolution0s4_0B9_
FN:171,_RNCNCNvNtNtCs1zQjFe0mrqD_16syncthing_mcp_rs5tools4diff27preview_conflict_resolution0s_0B9_
FN:106,_RNCNvNtNtCs1zQjFe0mrqD_16syncthing_mcp_rs5tools4diff14diff_conflicts0B7_
FN:165,_RNCNvNtNtCs1zQjFe0mrqD_16syncthing_mcp_rs5tools4diff27preview_conflict_resolution0B7_
FNDA:0,_RNvNtNtCsk1nGwz09EVE_16syncthing_mcp_rs5tools4diff13get_json_diff
FNDA:0,_RNvNtNtCsk1nGwz09EVE_16syncthing_mcp_rs5tools4diff13get_text_diff
FNDA:0,_RNvNtNtCsk1nGwz09EVE_16syncthing_mcp_rs5tools4diff13get_yaml_diff
FNDA:0,_RNvNtNtCsk1nGwz09EVE_16syncthing_mcp_rs5tools4diff14diff_conflicts
FNDA:0,_RNvNtNtCsk1nGwz09EVE_16syncthing_mcp_rs5tools4diff22get_resolution_preview
FNDA:0,_RNvNtNtCsk1nGwz09EVE_16syncthing_mcp_rs5tools4diff27preview_conflict_resolution
FNDA:0,_RNvNtNtCsk1nGwz09EVE_16syncthing_mcp_rs5tools4diff8get_diff
FNDA:0,_RNCNCNvNtNtCsk1nGwz09EVE_16syncthing_mcp_rs5tools4diff14diff_conflicts00B9_
FNDA:0,_RNCNCNvNtNtCsk1nGwz09EVE_16syncthing_mcp_rs5tools4diff14diff_conflicts0s0_0B9_
FNDA:0,_RNCNCNvNtNtCsk1nGwz09EVE_16syncthing_mcp_rs5tools4diff14diff_conflicts0s1_0B9_
FNDA:0,_RNCNCNvNtNtCsk1nGwz09EVE_16syncthing_mcp_rs5tools4diff14diff_conflicts0s2_0B9_
FNDA:0,_RNCNCNvNtNtCsk1nGwz09EVE_16syncthing_mcp_rs5tools4diff14diff_conflicts0s3_0B9_
FNDA:0,_RNCNCNvNtNtCsk1nGwz09EVE_16syncthing_mcp_rs5tools4diff14diff_conflicts0s_0B9_
FNDA:0,_RNCNCNvNtNtCsk1nGwz09EVE_16syncthing_mcp_rs5tools4diff27preview_conflict_resolution00B9_
FNDA:0,_RNCNCNvNtNtCsk1nGwz09EVE_16syncthing_mcp_rs5tools4diff27preview_conflict_resolution0s0_0B9_
FNDA:0,_RNCNCNvNtNtCsk1nGwz09EVE_16syncthing_mcp_rs5tools4diff27preview_conflict_resolution0s1_0B9_
FNDA:0,_RNCNCNvNtNtCsk1nGwz09EVE_16syncthing_mcp_rs5tools4diff27preview_conflict_resolution0s2_0B9_
FNDA:0,_RNCNCNvNtNtCsk1nGwz09EVE_16syncthing_mcp_rs5tools4diff27preview_conflict_resolution0s3_0B9_
FNDA:0,_RNCNCNvNtNtCsk1nGwz09EVE_16syncthing_mcp_rs5tools4diff27preview_conflict_resolution0s4_0B9_
FNDA:0,_RNCNCNvNtNtCsk1nGwz09EVE_16syncthing_mcp_rs5tools4diff27preview_conflict_resolution0s_0B9_
FNDA:0,_RNCNvNtNtCsk1nGwz09EVE_16syncthing_mcp_rs5tools4diff14diff_conflicts0B7_
FNDA:0,_RNCNvNtNtCsk1nGwz09EVE_16syncthing_mcp_rs5tools4diff27preview_conflict_resolution0B7_
FNDA:4,_RNvNtNtCs1zQjFe0mrqD_16syncthing_mcp_rs5tools4diff13get_json_diff
FNDA:4,_RNvNtNtCs1zQjFe0mrqD_16syncthing_mcp_rs5tools4diff13get_text_diff
FNDA:3,_RNvNtNtCs1zQjFe0mrqD_16syncthing_mcp_rs5tools4diff13get_yaml_diff
FNDA:3,_RNvNtNtCs1zQjFe0mrqD_16syncthing_mcp_rs5tools4diff14diff_conflicts
FNDA:7,_RNvNtNtCs1zQjFe0mrqD_16syncthing_mcp_rs5tools4diff22get_resolution_preview
FNDA:4,_RNvNtNtCs1zQjFe0mrqD_16syncthing_mcp_rs5tools4diff27preview_conflict_resolution
FNDA:10,_RNvNtNtCs1zQjFe0mrqD_16syncthing_mcp_rs5tools4diff8get_diff
FNDA:1,_RNCNCNvNtNtCs1zQjFe0mrqD_16syncthing_mcp_rs5tools4diff14diff_conflicts00B9_
FNDA:0,_RNCNCNvNtNtCs1zQjFe0mrqD_16syncthing_mcp_rs5tools4diff14diff_conflicts0s0_0B9_
FNDA:1,_RNCNCNvNtNtCs1zQjFe0mrqD_16syncthing_mcp_rs5tools4diff14diff_conflicts0s1_0B9_
FNDA:0,_RNCNCNvNtNtCs1zQjFe0mrqD_16syncthing_mcp_rs5tools4diff14diff_conflicts0s2_0B9_
FNDA:0,_RNCNCNvNtNtCs1zQjFe0mrqD_16syncthing_mcp_rs5tools4diff14diff_conflicts0s3_0B9_
FNDA:0,_RNCNCNvNtNtCs1zQjFe0mrqD_16syncthing_mcp_rs5tools4diff14diff_conflicts0s_0B9_
FNDA:1,_RNCNCNvNtNtCs1zQjFe0mrqD_16syncthing_mcp_rs5tools4diff27preview_conflict_resolution00B9_
FNDA:0,_RNCNCNvNtNtCs1zQjFe0mrqD_16syncthing_mcp_rs5tools4diff27preview_conflict_resolution0s0_0B9_
FNDA:0,_RNCNCNvNtNtCs1zQjFe0mrqD_16syncthing_mcp_rs5tools4diff27preview_conflict_resolution0s1_0B9_
FNDA:0,_RNCNCNvNtNtCs1zQjFe0mrqD_16syncthing_mcp_rs5tools4diff27preview_conflict_resolution0s2_0B9_
FNDA:0,_RNCNCNvNtNtCs1zQjFe0mrqD_16syncthing_mcp_rs5tools4diff27preview_conflict_resolution0s3_0B9_
FNDA:0,_RNCNCNvNtNtCs1zQjFe0mrqD_16syncthing_mcp_rs5tools4diff27preview_conflict_resolution0s4_0B9_
FNDA:1,_RNCNCNvNtNtCs1zQjFe0mrqD_16syncthing_mcp_rs5tools4diff27preview_conflict_resolution0s_0B9_
FNDA:3,_RNCNvNtNtCs1zQjFe0mrqD_16syncthing_mcp_rs5tools4diff14diff_conflicts0B7_
FNDA:4,_RNCNvNtNtCs1zQjFe0mrqD_16syncthing_mcp_rs5tools4diff27preview_conflict_resolution0B7_
FNF:22
FNH:13
DA:26,4
DA:27,4
DA:28,4
DA:30,13
DA:31,13
DA:32,5
DA:33,6
DA:34,2
DA:36,13
DA:38,4
DA:39,4
DA:42,4
DA:43,4
DA:44,4
DA:46,3
DA:47,2
DA:49,1
DA:51,4
DA:54,3
DA:55,3
DA:56,3
DA:58,3
DA:59,2
DA:61,1
DA:63,3
DA:67,10
DA:68,10
DA:69,0
DA:70,3
DA:71,2
DA:74,5
DA:75,5
DA:77,5
DA:79,5
DA:80,1
DA:81,1
DA:82,1
DA:83,0
DA:84,0
DA:85,4
DA:87,4
DA:88,1
DA:89,1
DA:90,1
DA:91,0
DA:92,0
DA:93,3
DA:96,3
DA:99,10
DA:102,3
DA:103,3
DA:104,3
DA:105,3
DA:106,3
DA:107,3
DA:108,3
DA:109,3
DA:110,2
DA:112,2
DA:113,2
DA:114,0
DA:115,0
DA:116,2
DA:117,0
DA:118,0
DA:121,1
DA:122,2
DA:123,2
DA:124,1
DA:125,1
DA:126,1
DA:127,1
DA:128,1
DA:130,1
DA:131,1
DA:132,1
DA:133,0
DA:134,0
DA:135,1
DA:136,1
DA:137,1
DA:138,0
DA:139,0
DA:141,1
DA:143,1
DA:144,1
DA:145,1
DA:146,1
DA:147,1
DA:148,1
DA:149,3
DA:152,7
DA:153,7
DA:154,7
DA:155,5
DA:156,1
DA:158,7
DA:161,4
DA:162,4
DA:163,4
DA:164,4
DA:165,4
DA:166,4
DA:167,4
DA:168,4
DA:169,3
DA:170,3
DA:171,3
DA:173,2
DA:174,2
DA:175,0
DA:176,0
DA:177,2
DA:178,0
DA:179,0
DA:182,2
DA:183,2
DA:184,2
DA:185,0
DA:186,0
DA:187,0
DA:188,0
DA:189,0
DA:191,2
DA:192,2
DA:193,2
DA:194,0
DA:195,0
DA:196,2
DA:197,2
DA:198,2
DA:199,0
DA:200,0
DA:202,2
DA:204,2
DA:205,2
DA:206,2
DA:207,2
DA:208,2
DA:209,2
DA:210,4
BRF:0
BRH:0
LF:166
LH:122
end_of_record
SF:/home/nicholas/git/nicholaswilde/syncthing-mcp-rs/src/tools/folders.rs
FN:196,_RNCNCNCNvNtNtCsk1nGwz09EVE_16syncthing_mcp_rs5tools7folders14manage_ignores0s0_00Bb_
FN:212,_RNCNCNCNvNtNtCsk1nGwz09EVE_16syncthing_mcp_rs5tools7folders14manage_ignores0s2_00Bb_
FN:34,_RNCNCNvNtNtCsk1nGwz09EVE_16syncthing_mcp_rs5tools7folders14manage_folders00B9_
FN:83,_RNCNCNvNtNtCsk1nGwz09EVE_16syncthing_mcp_rs5tools7folders14manage_folders0s0_0B9_
FN:69,_RNCNCNvNtNtCsk1nGwz09EVE_16syncthing_mcp_rs5tools7folders14manage_folders0s_0B9_
FN:169,_RNCNCNvNtNtCsk1nGwz09EVE_16syncthing_mcp_rs5tools7folders14manage_ignores00B9_
FN:196,_RNCNCNvNtNtCsk1nGwz09EVE_16syncthing_mcp_rs5tools7folders14manage_ignores0s0_0B9_
FN:207,_RNCNCNvNtNtCsk1nGwz09EVE_16syncthing_mcp_rs5tools7folders14manage_ignores0s1_0B9_
FN:212,_RNCNCNvNtNtCsk1nGwz09EVE_16syncthing_mcp_rs5tools7folders14manage_ignores0s2_0B9_
FN:191,_RNCNCNvNtNtCsk1nGwz09EVE_16syncthing_mcp_rs5tools7folders14manage_ignores0s_0B9_
FN:109,_RNCNCNvNtNtCsk1nGwz09EVE_16syncthing_mcp_rs5tools7folders17configure_sharing00B9_
FN:115,_RNCNCNvNtNtCsk1nGwz09EVE_16syncthing_mcp_rs5tools7folders17configure_sharing0s0_0B9_
FN:121,_RNCNCNvNtNtCsk1nGwz09EVE_16syncthing_mcp_rs5tools7folders17configure_sharing0s1_0B9_
FN:140,_RNCNCNvNtNtCsk1nGwz09EVE_16syncthing_mcp_rs5tools7folders17configure_sharing0s2_0B9_
FN:112,_RNCNCNvNtNtCsk1nGwz09EVE_16syncthing_mcp_rs5tools7folders17configure_sharing0s_0B9_
FN:13,_RNCNvNtNtCsk1nGwz09EVE_16syncthing_mcp_rs5tools7folders14manage_folders0B7_
FN:165,_RNCNvNtNtCsk1nGwz09EVE_16syncthing_mcp_rs5tools7folders14manage_ignores0B7_
FN:248,_RNCNvNtNtCsk1nGwz09EVE_16syncthing_mcp_rs5tools7folders16get_folder_stats0B7_
FN:106,_RNCNvNtNtCsk1nGwz09EVE_16syncthing_mcp_rs5tools7folders17configure_sharing0B7_
FN:9,_RNvNtNtCsk1nGwz09EVE_16syncthing_mcp_rs5tools7folders14manage_folders
FN:161,_RNvNtNtCsk1nGwz09EVE_16syncthing_mcp_rs5tools7folders14manage_ignores
FN:244,_RNvNtNtCsk1nGwz09EVE_16syncthing_mcp_rs5tools7folders16get_folder_stats
FN:102,_RNvNtNtCsk1nGwz09EVE_16syncthing_mcp_rs5tools7folders17configure_sharing
FN:9,_RNvNtNtCs1zQjFe0mrqD_16syncthing_mcp_rs5tools7folders14manage_folders
FN:161,_RNvNtNtCs1zQjFe0mrqD_16syncthing_mcp_rs5tools7folders14manage_ignores
FN:244,_RNvNtNtCs1zQjFe0mrqD_16syncthing_mcp_rs5tools7folders16get_folder_stats
FN:102,_RNvNtNtCs1zQjFe0mrqD_16syncthing_mcp_rs5tools7folders17configure_sharing
FN:196,_RNCNCNCNvNtNtCs1zQjFe0mrqD_16syncthing_mcp_rs5tools7folders14manage_ignores0s0_00Bb_
FN:212,_RNCNCNCNvNtNtCs1zQjFe0mrqD_16syncthing_mcp_rs5tools7folders14manage_ignores0s2_00Bb_
FN:34,_RNCNCNvNtNtCs1zQjFe0mrqD_16syncthing_mcp_rs5tools7folders14manage_folders00B9_
FN:83,_RNCNCNvNtNtCs1zQjFe0mrqD_16syncthing_mcp_rs5tools7folders14manage_folders0s0_0B9_
FN:69,_RNCNCNvNtNtCs1zQjFe0mrqD_16syncthing_mcp_rs5tools7folders14manage_folders0s_0B9_
FN:169,_RNCNCNvNtNtCs1zQjFe0mrqD_16syncthing_mcp_rs5tools7folders14manage_ignores00B9_
FN:196,_RNCNCNvNtNtCs1zQjFe0mrqD_16syncthing_mcp_rs5tools7folders14manage_ignores0s0_0B9_
FN:207,_RNCNCNvNtNtCs1zQjFe0mrqD_16syncthing_mcp_rs5tools7folders14manage_ignores0s1_0B9_
FN:212,_RNCNCNvNtNtCs1zQjFe0mrqD_16syncthing_mcp_rs5tools7folders14manage_ignores0s2_0B9_
FN:191,_RNCNCNvNtNtCs1zQjFe0mrqD_16syncthing_mcp_rs5tools7folders14manage_ignores0s_0B9_
FN:109,_RNCNCNvNtNtCs1zQjFe0mrqD_16syncthing_mcp_rs5tools7folders17configure_sharing00B9_
FN:115,_RNCNCNvNtNtCs1zQjFe0mrqD_16syncthing_mcp_rs5tools7folders17configure_sharing0s0_0B9_
FN:121,_RNCNCNvNtNtCs1zQjFe0mrqD_16syncthing_mcp_rs5tools7folders17configure_sharing0s1_0B9_
FN:140,_RNCNCNvNtNtCs1zQjFe0mrqD_16syncthing_mcp_rs5tools7folders17configure_sharing0s2_0B9_
FN:112,_RNCNCNvNtNtCs1zQjFe0mrqD_16syncthing_mcp_rs5tools7folders17configure_sharing0s_0B9_
FN:13,_RNCNvNtNtCs1zQjFe0mrqD_16syncthing_mcp_rs5tools7folders14manage_folders0B7_
FN:165,_RNCNvNtNtCs1zQjFe0mrqD_16syncthing_mcp_rs5tools7folders14manage_ignores0B7_
FN:248,_RNCNvNtNtCs1zQjFe0mrqD_16syncthing_mcp_rs5tools7folders16get_folder_stats0B7_
FN:106,_RNCNvNtNtCs1zQjFe0mrqD_16syncthing_mcp_rs5tools7folders17configure_sharing0B7_
FNDA:0,_RNCNCNCNvNtNtCsk1nGwz09EVE_16syncthing_mcp_rs5tools7folders14manage_ignores0s0_00Bb_
FNDA:0,_RNCNCNCNvNtNtCsk1nGwz09EVE_16syncthing_mcp_rs5tools7folders14manage_ignores0s2_00Bb_
FNDA:0,_RNCNCNvNtNtCsk1nGwz09EVE_16syncthing_mcp_rs5tools7folders14manage_folders00B9_
FNDA:0,_RNCNCNvNtNtCsk1nGwz09EVE_16syncthing_mcp_rs5tools7folders14manage_folders0s0_0B9_
FNDA:0,_RNCNCNvNtNtCsk1nGwz09EVE_16syncthing_mcp_rs5tools7folders14manage_folders0s_0B9_
FNDA:0,_RNCNCNvNtNtCsk1nGwz09EVE_16syncthing_mcp_rs5tools7folders14manage_ignores00B9_
FNDA:0,_RNCNCNvNtNtCsk1nGwz09EVE_16syncthing_mcp_rs5tools7folders14manage_ignores0s0_0B9_
FNDA:0,_RNCNCNvNtNtCsk1nGwz09EVE_16syncthing_mcp_rs5tools7folders14manage_ignores0s1_0B9_
FNDA:0,_RNCNCNvNtNtCsk1nGwz09EVE_16syncthing_mcp_rs5tools7folders14manage_ignores0s2_0B9_
FNDA:0,_RNCNCNvNtNtCsk1nGwz09EVE_16syncthing_mcp_rs5tools7folders14manage_ignores0s_0B9_
FNDA:0,_RNCNCNvNtNtCsk1nGwz09EVE_16syncthing_mcp_rs5tools7folders17configure_sharing00B9_
FNDA:0,_RNCNCNvNtNtCsk1nGwz09EVE_16syncthing_mcp_rs5tools7folders17configure_sharing0s0_0B9_
FNDA:0,_RNCNCNvNtNtCsk1nGwz09EVE_16syncthing_mcp_rs5tools7folders17configure_sharing0s1_0B9_
FNDA:0,_RNCNCNvNtNtCsk1nGwz09EVE_16syncthing_mcp_rs5tools7folders17configure_sharing0s2_0B9_
FNDA:0,_RNCNCNvNtNtCsk1nGwz09EVE_16syncthing_mcp_rs5tools7folders17configure_sharing0s_0B9_
FNDA:0,_RNCNvNtNtCsk1nGwz09EVE_16syncthing_mcp_rs5tools7folders14manage_folders0B7_
FNDA:0,_RNCNvNtNtCsk1nGwz09EVE_16syncthing_mcp_rs5tools7folders14manage_ignores0B7_
FNDA:0,_RNCNvNtNtCsk1nGwz09EVE_16syncthing_mcp_rs5tools7folders16get_folder_stats0B7_
FNDA:0,_RNCNvNtNtCsk1nGwz09EVE_16syncthing_mcp_rs5tools7folders17configure_sharing0B7_
FNDA:0,_RNvNtNtCsk1nGwz09EVE_16syncthing_mcp_rs5tools7folders14manage_folders
FNDA:0,_RNvNtNtCsk1nGwz09EVE_16syncthing_mcp_rs5tools7folders14manage_ignores
FNDA:0,_RNvNtNtCsk1nGwz09EVE_16syncthing_mcp_rs5tools7folders16get_folder_stats
FNDA:0,_RNvNtNtCsk1nGwz09EVE_16syncthing_mcp_rs5tools7folders17configure_sharing
FNDA:8,_RNvNtNtCs1zQjFe0mrqD_16syncthing_mcp_rs5tools7folders14manage_folders
FNDA:6,_RNvNtNtCs1zQjFe0mrqD_16syncthing_mcp_rs5tools7folders14manage_ignores
FNDA:2,_RNvNtNtCs1zQjFe0mrqD_16syncthing_mcp_rs5tools7folders16get_folder_stats
FNDA:4,_RNvNtNtCs1zQjFe0mrqD_16syncthing_mcp_rs5tools7folders17configure_sharing
FNDA:2,_RNCNCNCNvNtNtCs1zQjFe0mrqD_16syncthing_mcp_rs5tools7folders14manage_ignores0s0_00Bb_
FNDA:2,_RNCNCNCNvNtNtCs1zQjFe0mrqD_16syncthing_mcp_rs5tools7folders14manage_ignores0s2_00Bb_
FNDA:0,_RNCNCNvNtNtCs1zQjFe0mrqD_16syncthing_mcp_rs5tools7folders14manage_folders00B9_
FNDA:0,_RNCNCNvNtNtCs1zQjFe0mrqD_16syncthing_mcp_rs5tools7folders14manage_folders0s0_0B9_
FNDA:0,_RNCNCNvNtNtCs1zQjFe0mrqD_16syncthing_mcp_rs5tools7folders14manage_folders0s_0B9_
FNDA:0,_RNCNCNvNtNtCs1zQjFe0mrqD_16syncthing_mcp_rs5tools7folders14manage_ignores00B9_
FNDA:2,_RNCNCNvNtNtCs1zQjFe0mrqD_16syncthing_mcp_rs5tools7folders14manage_ignores0s0_0B9_
FNDA:0,_RNCNCNvNtNtCs1zQjFe0mrqD_16syncthing_mcp_rs5tools7folders14manage_ignores0s1_0B9_
FNDA:2,_RNCNCNvNtNtCs1zQjFe0mrqD_16syncthing_mcp_rs5tools7folders14manage_ignores0s2_0B9_
FNDA:1,_RNCNCNvNtNtCs1zQjFe0mrqD_16syncthing_mcp_rs5tools7folders14manage_ignores0s_0B9_
FNDA:0,_RNCNCNvNtNtCs1zQjFe0mrqD_16syncthing_mcp_rs5tools7folders17configure_sharing00B9_
FNDA:0,_RNCNCNvNtNtCs1zQjFe0mrqD_16syncthing_mcp_rs5tools7folders17configure_sharing0s0_0B9_
FNDA:0,_RNCNCNvNtNtCs1zQjFe0mrqD_16syncthing_mcp_rs5tools7folders17configure_sharing0s1_0B9_
FNDA:1,_RNCNCNvNtNtCs1zQjFe0mrqD_16syncthing_mcp_rs5tools7folders17configure_sharing0s2_0B9_
FNDA:0,_RNCNCNvNtNtCs1zQjFe0mrqD_16syncthing_mcp_rs5tools7folders17configure_sharing0s_0B9_
FNDA:8,_RNCNvNtNtCs1zQjFe0mrqD_16syncthing_mcp_rs5tools7folders14manage_folders0B7_
FNDA:6,_RNCNvNtNtCs1zQjFe0mrqD_16syncthing_mcp_rs5tools7folders14manage_ignores0B7_
FNDA:2,_RNCNvNtNtCs1zQjFe0mrqD_16syncthing_mcp_rs5tools7folders16get_folder_stats0B7_
FNDA:4,_RNCNvNtNtCs1zQjFe0mrqD_16syncthing_mcp_rs5tools7folders17configure_sharing0B7_
FNF:23
FNH:14
DA:9,8
DA:10,8
DA:11,8
DA:12,8
DA:13,8
DA:14,8
DA:16,8
DA:17,8
DA:18,2
DA:19,2
DA:20,2
DA:21,2
DA:22,2
DA:23,2
DA:24,2
DA:25,2
DA:26,2
DA:27,2
DA:28,2
DA:29,2
DA:30,2
DA:31,2
DA:33,6
DA:34,1
DA:35,0
DA:36,0
DA:37,1
DA:38,1
DA:39,1
DA:40,1
DA:41,1
DA:45,5
DA:46,2
DA:47,2
DA:48,2
DA:49,0
DA:50,0
DA:51,2
DA:52,2
DA:53,2
DA:54,2
DA:55,2
DA:56,2
DA:57,2
DA:58,2
DA:61,2
DA:62,2
DA:63,2
DA:64,2
DA:65,2
DA:66,2
DA:68,3
DA:69,1
DA:70,0
DA:71,0
DA:72,0
DA:73,0
DA:74,1
DA:75,1
DA:76,1
DA:77,1
DA:78,1
DA:79,1
DA:80,1
DA:82,2
DA:83,2
DA:84,0
DA:85,0
DA:86,2
DA:87,2
DA:88,2
DA:89,2
DA:90,2
DA:91,2
DA:92,2
DA:94,0
DA:95,0
DA:96,0
DA:97,0
DA:99,8
DA:102,4
DA:103,4
DA:104,4
DA:105,4
DA:106,4
DA:107,4
DA:108,4
DA:109,4
DA:110,4
DA:111,4
DA:112,4
DA:113,4
DA:114,4
DA:115,4
DA:117,4
DA:119,4
DA:120,4
DA:121,2
DA:122,2
DA:123,2
DA:124,2
DA:125,2
DA:126,2
DA:127,2
DA:128,2
DA:129,2
DA:130,0
DA:131,2
DA:132,2
DA:133,2
DA:134,2
DA:135,2
DA:136,2
DA:138,2
DA:139,2
DA:140,2
DA:141,2
DA:142,1
DA:143,1
DA:144,1
DA:145,1
DA:146,2
DA:147,2
DA:148,2
DA:149,2
DA:150,2
DA:151,2
DA:153,0
DA:154,0
DA:155,0
DA:156,0
DA:158,4
DA:161,6
DA:162,6
DA:163,6
DA:164,6
DA:165,6
DA:166,6
DA:167,6
DA:168,6
DA:169,6
DA:171,6
DA:172,6
DA:173,2
DA:174,2
DA:175,2
DA:176,2
DA:177,0
DA:178,0
DA:179,3
DA:180,3
DA:181,3
DA:183,2
DA:184,2
DA:185,2
DA:186,2
DA:187,2
DA:188,2
DA:190,4
DA:191,2
DA:192,1
DA:193,1
DA:194,1
DA:195,1
DA:196,2
DA:197,1
DA:198,1
DA:199,1
DA:200,1
DA:201,1
DA:202,1
DA:203,1
DA:204,1
DA:206,2
DA:207,2
DA:208,0
DA:209,0
DA:210,2
DA:211,2
DA:212,2
DA:213,2
DA:215,2
DA:216,2
DA:217,2
DA:218,2
DA:219,2
DA:220,1
DA:221,1
DA:222,1
DA:225,2
DA:226,1
DA:227,1
DA:229,2
DA:230,2
DA:231,2
DA:232,2
DA:233,2
DA:234,2
DA:236,0
DA:237,0
DA:238,0
DA:239,0
DA:241,6
DA:244,2
DA:245,2
DA:246,2
DA:247,2
DA:248,2
DA:249,2
DA:251,2
DA:252,2
DA:253,2
DA:254,2
DA:255,2
DA:256,2
DA:257,2
DA:258,2
DA:259,2
DA:260,0
DA:261,0
DA:264,2
DA:265,2
DA:266,2
DA:267,2
DA:268,2
DA:269,2
DA:270,2
BRF:0
BRH:0
LF:251
LH:209
end_of_record
SF:/home/nicholas/git/nicholaswilde/syncthing-mcp-rs/src/tools/git_sync.rs
FN:205,_RNCNCNvMs0_NtNtCsk1nGwz09EVE_16syncthing_mcp_rs5tools8git_syncNtB9_14GitSyncManager13backup_config00Bd_
FN:208,_RNCNCNvMs0_NtNtCsk1nGwz09EVE_16syncthing_mcp_rs5tools8git_syncNtB9_14GitSyncManager13backup_config0s_0Bd_
FN:229,_RNCNCNvMs0_NtNtCsk1nGwz09EVE_16syncthing_mcp_rs5tools8git_syncNtB9_14GitSyncManager14restore_config00Bd_
FN:93,_RNCNCNvMs_NtNtCsk1nGwz09EVE_16syncthing_mcp_rs5tools8git_syncNtB8_9GitClient10clone_from00Bc_
FN:100,_RNCNCNvMs_NtNtCsk1nGwz09EVE_16syncthing_mcp_rs5tools8git_syncNtB8_9GitClient10clone_from0s0_0Bc_
FN:106,_RNCNCNvMs_NtNtCsk1nGwz09EVE_16syncthing_mcp_rs5tools8git_syncNtB8_9GitClient10clone_from0s1_0Bc_
FN:99,_RNCNCNvMs_NtNtCsk1nGwz09EVE_16syncthing_mcp_rs5tools8git_syncNtB8_9GitClient10clone_from0s_0Bc_
FN:152,_RNCNCNvMs_NtNtCsk1nGwz09EVE_16syncthing_mcp_rs5tools8git_syncNtB8_9GitClient11run_command00Bc_
FN:82,_RNCNCNvMs_NtNtCsk1nGwz09EVE_16syncthing_mcp_rs5tools8git_syncNtB8_9GitClient4init00Bc_
FN:189,_RNCNvMs0_NtNtCsk1nGwz09EVE_16syncthing_mcp_rs5tools8git_syncNtB7_14GitSyncManager11init_remote0Bb_
FN:195,_RNCNvMs0_NtNtCsk1nGwz09EVE_16syncthing_mcp_rs5tools8git_syncNtB7_14GitSyncManager13backup_config0Bb_
FN:225,_RNCNvMs0_NtNtCsk1nGwz09EVE_16syncthing_mcp_rs5tools8git_syncNtB7_14GitSyncManager14restore_config0Bb_
FN:184,_RNCNvMs0_NtNtCsk1nGwz09EVE_16syncthing_mcp_rs5tools8git_syncNtB7_14GitSyncManager4init0Bb_
FN:246,_RNCNvMs0_NtNtCsk1nGwz09EVE_16syncthing_mcp_rs5tools8git_syncNtB7_14GitSyncManager4push0Bb_
FN:239,_RNCNvMs0_NtNtCsk1nGwz09EVE_16syncthing_mcp_rs5tools8git_syncNtB7_14GitSyncManager8get_diff0Bb_
FN:91,_RNCNvMs_NtNtCsk1nGwz09EVE_16syncthing_mcp_rs5tools8git_syncNtB6_9GitClient10clone_from0Ba_
FN:147,_RNCNvMs_NtNtCsk1nGwz09EVE_16syncthing_mcp_rs5tools8git_syncNtB6_9GitClient11run_command0Ba_
FN:121,_RNCNvMs_NtNtCsk1nGwz09EVE_16syncthing_mcp_rs5tools8git_syncNtB6_9GitClient3add0Ba_
FN:79,_RNCNvMs_NtNtCsk1nGwz09EVE_16syncthing_mcp_rs5tools8git_syncNtB6_9GitClient4init0Ba_
FN:135,_RNCNvMs_NtNtCsk1nGwz09EVE_16syncthing_mcp_rs5tools8git_syncNtB6_9GitClient4push0Ba_
FN:128,_RNCNvMs_NtNtCsk1nGwz09EVE_16syncthing_mcp_rs5tools8git_syncNtB6_9GitClient6commit0Ba_
FN:141,_RNCNvMs_NtNtCsk1nGwz09EVE_16syncthing_mcp_rs5tools8git_syncNtB6_9GitClient8checkout0Ba_
FN:22,_RNvMNtNtCsk1nGwz09EVE_16syncthing_mcp_rs5tools8git_syncNtB2_14ConfigExporter14mask_sensitive
FN:13,_RNvMNtNtCsk1nGwz09EVE_16syncthing_mcp_rs5tools8git_syncNtB2_14ConfigExporter3new
FN:57,_RNvMNtNtCsk1nGwz09EVE_16syncthing_mcp_rs5tools8git_syncNtB2_14ConfigExporter7to_json
FN:62,_RNvMNtNtCsk1nGwz09EVE_16syncthing_mcp_rs5tools8git_syncNtB2_14ConfigExporter7to_yaml
FN:189,_RNvMs0_NtNtCsk1nGwz09EVE_16syncthing_mcp_rs5tools8git_syncNtB5_14GitSyncManager11init_remote
FN:195,_RNvMs0_NtNtCsk1nGwz09EVE_16syncthing_mcp_rs5tools8git_syncNtB5_14GitSyncManager13backup_config
FN:225,_RNvMs0_NtNtCsk1nGwz09EVE_16syncthing_mcp_rs5tools8git_syncNtB5_14GitSyncManager14restore_config
FN:176,_RNvMs0_NtNtCsk1nGwz09EVE_16syncthing_mcp_rs5tools8git_syncNtB5_14GitSyncManager3new
FN:184,_RNvMs0_NtNtCsk1nGwz09EVE_16syncthing_mcp_rs5tools8git_syncNtB5_14GitSyncManager4init
FN:246,_RNvMs0_NtNtCsk1nGwz09EVE_16syncthing_mcp_rs5tools8git_syncNtB5_14GitSyncManager4push
FN:239,_RNvMs0_NtNtCsk1nGwz09EVE_16syncthing_mcp_rs5tools8git_syncNtB5_14GitSyncManager8get_diff
FN:91,_RNvMs_NtNtCsk1nGwz09EVE_16syncthing_mcp_rs5tools8git_syncNtB4_9GitClient10clone_from
FN:147,_RNvMs_NtNtCsk1nGwz09EVE_16syncthing_mcp_rs5tools8git_syncNtB4_9GitClient11run_command
FN:121,_RNvMs_NtNtCsk1nGwz09EVE_16syncthing_mcp_rs5tools8git_syncNtB4_9GitClient3add
FN:74,_RNvMs_NtNtCsk1nGwz09EVE_16syncthing_mcp_rs5tools8git_syncNtB4_9GitClient3new
FN:79,_RNvMs_NtNtCsk1nGwz09EVE_16syncthing_mcp_rs5tools8git_syncNtB4_9GitClient4init
FN:135,_RNvMs_NtNtCsk1nGwz09EVE_16syncthing_mcp_rs5tools8git_syncNtB4_9GitClient4push
FN:128,_RNvMs_NtNtCsk1nGwz09EVE_16syncthing_mcp_rs5tools8git_syncNtB4_9GitClient6commit
FN:141,_RNvMs_NtNtCsk1nGwz09EVE_16syncthing_mcp_rs5tools8git_syncNtB4_9GitClient8checkout
FN:205,_RNCNCNvMs0_NtNtCsk1nGwz09EVE_16syncthing_mcp_rs5tools8git_syncNtB9_14GitSyncManager13backup_config00Cscgd7Rtj06ws_25git_sync_integration_test
FN:208,_RNCNCNvMs0_NtNtCsk1nGwz09EVE_16syncthing_mcp_rs5tools8git_syncNtB9_14GitSyncManager13backup_config0s_0Cscgd7Rtj06ws_25git_sync_integration_test
FN:229,_RNCNCNvMs0_NtNtCsk1nGwz09EVE_16syncthing_mcp_rs5tools8git_syncNtB9_14GitSyncManager14restore_config00Cscgd7Rtj06ws_25git_sync_integration_test
FN:152,_RNCNCNvMs_NtNtCsk1nGwz09EVE_16syncthing_mcp_rs5tools8git_syncNtB8_9GitClient11run_command00Cscgd7Rtj06ws_25git_sync_integration_test
FN:82,_RNCNCNvMs_NtNtCsk1nGwz09EVE_16syncthing_mcp_rs5tools8git_syncNtB8_9GitClient4init00Cscgd7Rtj06ws_25git_sync_integration_test
FN:195,_RNCNvMs0_NtNtCsk1nGwz09EVE_16syncthing_mcp_rs5tools8git_syncNtB7_14GitSyncManager13backup_config0Cscgd7Rtj06ws_25git_sync_integration_test
FN:225,_RNCNvMs0_NtNtCsk1nGwz09EVE_16syncthing_mcp_rs5tools8git_syncNtB7_14GitSyncManager14restore_config0Cscgd7Rtj06ws_25git_sync_integration_test
FN:184,_RNCNvMs0_NtNtCsk1nGwz09EVE_16syncthing_mcp_rs5tools8git_syncNtB7_14GitSyncManager4init0Cscgd7Rtj06ws_25git_sync_integration_test
FN:239,_RNCNvMs0_NtNtCsk1nGwz09EVE_16syncthing_mcp_rs5tools8git_syncNtB7_14GitSyncManager8get_diff0Cscgd7Rtj06ws_25git_sync_integration_test
FN:147,_RNCNvMs_NtNtCsk1nGwz09EVE_16syncthing_mcp_rs5tools8git_syncNtB6_9GitClient11run_command0Cscgd7Rtj06ws_25git_sync_integration_test
FN:121,_RNCNvMs_NtNtCsk1nGwz09EVE_16syncthing_mcp_rs5tools8git_syncNtB6_9GitClient3add0Cscgd7Rtj06ws_25git_sync_integration_test
FN:79,_RNCNvMs_NtNtCsk1nGwz09EVE_16syncthing_mcp_rs5tools8git_syncNtB6_9GitClient4init0Cscgd7Rtj06ws_25git_sync_integration_test
FN:128,_RNCNvMs_NtNtCsk1nGwz09EVE_16syncthing_mcp_rs5tools8git_syncNtB6_9GitClient6commit0Cscgd7Rtj06ws_25git_sync_integration_test
FN:141,_RNCNvMs_NtNtCsk1nGwz09EVE_16syncthing_mcp_rs5tools8git_syncNtB6_9GitClient8checkout0Cscgd7Rtj06ws_25git_sync_integration_test
FN:22,_RNvMNtNtCs1zQjFe0mrqD_16syncthing_mcp_rs5tools8git_syncNtB2_14ConfigExporter14mask_sensitive
FN:13,_RNvMNtNtCs1zQjFe0mrqD_16syncthing_mcp_rs5tools8git_syncNtB2_14ConfigExporter3new
FN:57,_RNvMNtNtCs1zQjFe0mrqD_16syncthing_mcp_rs5tools8git_syncNtB2_14ConfigExporter7to_json
FN:62,_RNvMNtNtCs1zQjFe0mrqD_16syncthing_mcp_rs5tools8git_syncNtB2_14ConfigExporter7to_yaml
FN:189,_RNvMs0_NtNtCs1zQjFe0mrqD_16syncthing_mcp_rs5tools8git_syncNtB5_14GitSyncManager11init_remote
FN:195,_RNvMs0_NtNtCs1zQjFe0mrqD_16syncthing_mcp_rs5tools8git_syncNtB5_14GitSyncManager13backup_config
FN:225,_RNvMs0_NtNtCs1zQjFe0mrqD_16syncthing_mcp_rs5tools8git_syncNtB5_14GitSyncManager14restore_config
FN:176,_RNvMs0_NtNtCs1zQjFe0mrqD_16syncthing_mcp_rs5tools8git_syncNtB5_14GitSyncManager3new
FN:184,_RNvMs0_NtNtCs1zQjFe0mrqD_16syncthing_mcp_rs5tools8git_syncNtB5_14GitSyncManager4init
FN:246,_RNvMs0_NtNtCs1zQjFe0mrqD_16syncthing_mcp_rs5tools8git_syncNtB5_14GitSyncManager4push
FN:239,_RNvMs0_NtNtCs1zQjFe0mrqD_16syncthing_mcp_rs5tools8git_syncNtB5_14GitSyncManager8get_diff
FN:91,_RNvMs_NtNtCs1zQjFe0mrqD_16syncthing_mcp_rs5tools8git_syncNtB4_9GitClient10clone_from
FN:147,_RNvMs_NtNtCs1zQjFe0mrqD_16syncthing_mcp_rs5tools8git_syncNtB4_9GitClient11run_command
FN:121,_RNvMs_NtNtCs1zQjFe0mrqD_16syncthing_mcp_rs5tools8git_syncNtB4_9GitClient3add
FN:74,_RNvMs_NtNtCs1zQjFe0mrqD_16syncthing_mcp_rs5tools8git_syncNtB4_9GitClient3new
FN:79,_RNvMs_NtNtCs1zQjFe0mrqD_16syncthing_mcp_rs5tools8git_syncNtB4_9GitClient4init
FN:135,_RNvMs_NtNtCs1zQjFe0mrqD_16syncthing_mcp_rs5tools8git_syncNtB4_9GitClient4push
FN:128,_RNvMs_NtNtCs1zQjFe0mrqD_16syncthing_mcp_rs5tools8git_syncNtB4_9GitClient6commit
FN:141,_RNvMs_NtNtCs1zQjFe0mrqD_16syncthing_mcp_rs5tools8git_syncNtB4_9GitClient8checkout
FN:205,_RNCNCNvMs0_NtNtCs1zQjFe0mrqD_16syncthing_mcp_rs5tools8git_syncNtB9_14GitSyncManager13backup_config00Bd_
FN:208,_RNCNCNvMs0_NtNtCs1zQjFe0mrqD_16syncthing_mcp_rs5tools8git_syncNtB9_14GitSyncManager13backup_config0s_0Bd_
FN:229,_RNCNCNvMs0_NtNtCs1zQjFe0mrqD_16syncthing_mcp_rs5tools8git_syncNtB9_14GitSyncManager14restore_config00Bd_
FN:93,_RNCNCNvMs_NtNtCs1zQjFe0mrqD_16syncthing_mcp_rs5tools8git_syncNtB8_9GitClient10clone_from00Bc_
FN:100,_RNCNCNvMs_NtNtCs1zQjFe0mrqD_16syncthing_mcp_rs5tools8git_syncNtB8_9GitClient10clone_from0s0_0Bc_
FN:106,_RNCNCNvMs_NtNtCs1zQjFe0mrqD_16syncthing_mcp_rs5tools8git_syncNtB8_9GitClient10clone_from0s1_0Bc_
FN:99,_RNCNCNvMs_NtNtCs1zQjFe0mrqD_16syncthing_mcp_rs5tools8git_syncNtB8_9GitClient10clone_from0s_0Bc_
FN:152,_RNCNCNvMs_NtNtCs1zQjFe0mrqD_16syncthing_mcp_rs5tools8git_syncNtB8_9GitClient11run_command00Bc_
FN:82,_RNCNCNvMs_NtNtCs1zQjFe0mrqD_16syncthing_mcp_rs5tools8git_syncNtB8_9GitClient4init00Bc_
FN:189,_RNCNvMs0_NtNtCs1zQjFe0mrqD_16syncthing_mcp_rs5tools8git_syncNtB7_14GitSyncManager11init_remote0Bb_
FN:195,_RNCNvMs0_NtNtCs1zQjFe0mrqD_16syncthing_mcp_rs5tools8git_syncNtB7_14GitSyncManager13backup_config0Bb_
FN:225,_RNCNvMs0_NtNtCs1zQjFe0mrqD_16syncthing_mcp_rs5tools8git_syncNtB7_14GitSyncManager14restore_config0Bb_
FN:184,_RNCNvMs0_NtNtCs1zQjFe0mrqD_16syncthing_mcp_rs5tools8git_syncNtB7_14GitSyncManager4init0Bb_
FN:246,_RNCNvMs0_NtNtCs1zQjFe0mrqD_16syncthing_mcp_rs5tools8git_syncNtB7_14GitSyncManager4push0Bb_
FN:239,_RNCNvMs0_NtNtCs1zQjFe0mrqD_16syncthing_mcp_rs5tools8git_syncNtB7_14GitSyncManager8get_diff0Bb_
FN:91,_RNCNvMs_NtNtCs1zQjFe0mrqD_16syncthing_mcp_rs5tools8git_syncNtB6_9GitClient10clone_from0Ba_
FN:147,_RNCNvMs_NtNtCs1zQjFe0mrqD_16syncthing_mcp_rs5tools8git_syncNtB6_9GitClient11run_command0Ba_
FN:121,_RNCNvMs_NtNtCs1zQjFe0mrqD_16syncthing_mcp_rs5tools8git_syncNtB6_9GitClient3add0Ba_
FN:79,_RNCNvMs_NtNtCs1zQjFe0mrqD_16syncthing_mcp_rs5tools8git_syncNtB6_9GitClient4init0Ba_
FN:135,_RNCNvMs_NtNtCs1zQjFe0mrqD_16syncthing_mcp_rs5tools8git_syncNtB6_9GitClient4push0Ba_
FN:128,_RNCNvMs_NtNtCs1zQjFe0mrqD_16syncthing_mcp_rs5tools8git_syncNtB6_9GitClient6commit0Ba_
FN:141,_RNCNvMs_NtNtCs1zQjFe0mrqD_16syncthing_mcp_rs5tools8git_syncNtB6_9GitClient8checkout0Ba_
FNDA:0,_RNCNCNvMs0_NtNtCsk1nGwz09EVE_16syncthing_mcp_rs5tools8git_syncNtB9_14GitSyncManager13backup_config00Bd_
FNDA:0,_RNCNCNvMs0_NtNtCsk1nGwz09EVE_16syncthing_mcp_rs5tools8git_syncNtB9_14GitSyncManager13backup_config0s_0Bd_
FNDA:0,_RNCNCNvMs0_NtNtCsk1nGwz09EVE_16syncthing_mcp_rs5tools8git_syncNtB9_14GitSyncManager14restore_config00Bd_
FNDA:0,_RNCNCNvMs_NtNtCsk1nGwz09EVE_16syncthing_mcp_rs5tools8git_syncNtB8_9GitClient10clone_from00Bc_
FNDA:0,_RNCNCNvMs_NtNtCsk1nGwz09EVE_16syncthing_mcp_rs5tools8git_syncNtB8_9GitClient10clone_from0s0_0Bc_
FNDA:0,_RNCNCNvMs_NtNtCsk1nGwz09EVE_16syncthing_mcp_rs5tools8git_syncNtB8_9GitClient10clone_from0s1_0Bc_
FNDA:0,_RNCNCNvMs_NtNtCsk1nGwz09EVE_16syncthing_mcp_rs5tools8git_syncNtB8_9GitClient10clone_from0s_0Bc_
FNDA:0,_RNCNCNvMs_NtNtCsk1nGwz09EVE_16syncthing_mcp_rs5tools8git_syncNtB8_9GitClient11run_command00Bc_
FNDA:0,_RNCNCNvMs_NtNtCsk1nGwz09EVE_16syncthing_mcp_rs5tools8git_syncNtB8_9GitClient4init00Bc_
FNDA:0,_RNCNvMs0_NtNtCsk1nGwz09EVE_16syncthing_mcp_rs5tools8git_syncNtB7_14GitSyncManager11init_remote0Bb_
FNDA:0,_RNCNvMs0_NtNtCsk1nGwz09EVE_16syncthing_mcp_rs5tools8git_syncNtB7_14GitSyncManager13backup_config0Bb_
FNDA:0,_RNCNvMs0_NtNtCsk1nGwz09EVE_16syncthing_mcp_rs5tools8git_syncNtB7_14GitSyncManager14restore_config0Bb_
FNDA:0,_RNCNvMs0_NtNtCsk1nGwz09EVE_16syncthing_mcp_rs5tools8git_syncNtB7_14GitSyncManager4init0Bb_
FNDA:0,_RNCNvMs0_NtNtCsk1nGwz09EVE_16syncthing_mcp_rs5tools8git_syncNtB7_14GitSyncManager4push0Bb_
FNDA:0,_RNCNvMs0_NtNtCsk1nGwz09EVE_16syncthing_mcp_rs5tools8git_syncNtB7_14GitSyncManager8get_diff0Bb_
FNDA:0,_RNCNvMs_NtNtCsk1nGwz09EVE_16syncthing_mcp_rs5tools8git_syncNtB6_9GitClient10clone_from0Ba_
FNDA:0,_RNCNvMs_NtNtCsk1nGwz09EVE_16syncthing_mcp_rs5tools8git_syncNtB6_9GitClient11run_command0Ba_
FNDA:0,_RNCNvMs_NtNtCsk1nGwz09EVE_16syncthing_mcp_rs5tools8git_syncNtB6_9GitClient3add0Ba_
FNDA:0,_RNCNvMs_NtNtCsk1nGwz09EVE_16syncthing_mcp_rs5tools8git_syncNtB6_9GitClient4init0Ba_
FNDA:0,_RNCNvMs_NtNtCsk1nGwz09EVE_16syncthing_mcp_rs5tools8git_syncNtB6_9GitClient4push0Ba_
FNDA:0,_RNCNvMs_NtNtCsk1nGwz09EVE_16syncthing_mcp_rs5tools8git_syncNtB6_9GitClient6commit0Ba_
FNDA:0,_RNCNvMs_NtNtCsk1nGwz09EVE_16syncthing_mcp_rs5tools8git_syncNtB6_9GitClient8checkout0Ba_
FNDA:2,_RNvMNtNtCsk1nGwz09EVE_16syncthing_mcp_rs5tools8git_syncNtB2_14ConfigExporter14mask_sensitive
FNDA:2,_RNvMNtNtCsk1nGwz09EVE_16syncthing_mcp_rs5tools8git_syncNtB2_14ConfigExporter3new
FNDA:2,_RNvMNtNtCsk1nGwz09EVE_16syncthing_mcp_rs5tools8git_syncNtB2_14ConfigExporter7to_json
FNDA:2,_RNvMNtNtCsk1nGwz09EVE_16syncthing_mcp_rs5tools8git_syncNtB2_14ConfigExporter7to_yaml
FNDA:0,_RNvMs0_NtNtCsk1nGwz09EVE_16syncthing_mcp_rs5tools8git_syncNtB5_14GitSyncManager11init_remote
FNDA:2,_RNvMs0_NtNtCsk1nGwz09EVE_16syncthing_mcp_rs5tools8git_syncNtB5_14GitSyncManager13backup_config
FNDA:3,_RNvMs0_NtNtCsk1nGwz09EVE_16syncthing_mcp_rs5tools8git_syncNtB5_14GitSyncManager14restore_config
FNDA:1,_RNvMs0_NtNtCsk1nGwz09EVE_16syncthing_mcp_rs5tools8git_syncNtB5_14GitSyncManager3new
FNDA:1,_RNvMs0_NtNtCsk1nGwz09EVE_16syncthing_mcp_rs5tools8git_syncNtB5_14GitSyncManager4init
FNDA:0,_RNvMs0_NtNtCsk1nGwz09EVE_16syncthing_mcp_rs5tools8git_syncNtB5_14GitSyncManager4push
FNDA:1,_RNvMs0_NtNtCsk1nGwz09EVE_16syncthing_mcp_rs5tools8git_syncNtB5_14GitSyncManager8get_diff
FNDA:0,_RNvMs_NtNtCsk1nGwz09EVE_16syncthing_mcp_rs5tools8git_syncNtB4_9GitClient10clone_from
FNDA:15,_RNvMs_NtNtCsk1nGwz09EVE_16syncthing_mcp_rs5tools8git_syncNtB4_9GitClient11run_command
FNDA:4,_RNvMs_NtNtCsk1nGwz09EVE_16syncthing_mcp_rs5tools8git_syncNtB4_9GitClient3add
FNDA:2,_RNvMs_NtNtCsk1nGwz09EVE_16syncthing_mcp_rs5tools8git_syncNtB4_9GitClient3new
FNDA:1,_RNvMs_NtNtCsk1nGwz09EVE_16syncthing_mcp_rs5tools8git_syncNtB4_9GitClient4init
FNDA:0,_RNvMs_NtNtCsk1nGwz09EVE_16syncthing_mcp_rs5tools8git_syncNtB4_9GitClient4push
FNDA:2,_RNvMs_NtNtCsk1nGwz09EVE_16syncthing_mcp_rs5tools8git_syncNtB4_9GitClient6commit
FNDA:3,_RNvMs_NtNtCsk1nGwz09EVE_16syncthing_mcp_rs5tools8git_syncNtB4_9GitClient8checkout
FNDA:0,_RNCNCNvMs0_NtNtCsk1nGwz09EVE_16syncthing_mcp_rs5tools8git_syncNtB9_14GitSyncManager13backup_config00Cscgd7Rtj06ws_25git_sync_integration_test
FNDA:0,_RNCNCNvMs0_NtNtCsk1nGwz09EVE_16syncthing_mcp_rs5tools8git_syncNtB9_14GitSyncManager13backup_config0s_0Cscgd7Rtj06ws_25git_sync_integration_test
FNDA:0,_RNCNCNvMs0_NtNtCsk1nGwz09EVE_16syncthing_mcp_rs5tools8git_syncNtB9_14GitSyncManager14restore_config00Cscgd7Rtj06ws_25git_sync_integration_test
FNDA:0,_RNCNCNvMs_NtNtCsk1nGwz09EVE_16syncthing_mcp_rs5tools8git_syncNtB8_9GitClient11run_command00Cscgd7Rtj06ws_25git_sync_integration_test
FNDA:0,_RNCNCNvMs_NtNtCsk1nGwz09EVE_16syncthing_mcp_rs5tools8git_syncNtB8_9GitClient4init00Cscgd7Rtj06ws_25git_sync_integration_test
FNDA:2,_RNCNvMs0_NtNtCsk1nGwz09EVE_16syncthing_mcp_rs5tools8git_syncNtB7_14GitSyncManager13backup_config0Cscgd7Rtj06ws_25git_sync_integration_test
FNDA:3,_RNCNvMs0_NtNtCsk1nGwz09EVE_16syncthing_mcp_rs5tools8git_syncNtB7_14GitSyncManager14restore_config0Cscgd7Rtj06ws_25git_sync_integration_test
FNDA:1,_RNCNvMs0_NtNtCsk1nGwz09EVE_16syncthing_mcp_rs5tools8git_syncNtB7_14GitSyncManager4init0Cscgd7Rtj06ws_25git_sync_integration_test
FNDA:1,_RNCNvMs0_NtNtCsk1nGwz09EVE_16syncthing_mcp_rs5tools8git_syncNtB7_14GitSyncManager8get_diff0Cscgd7Rtj06ws_25git_sync_integration_test
FNDA:15,_RNCNvMs_NtNtCsk1nGwz09EVE_16syncthing_mcp_rs5tools8git_syncNtB6_9GitClient11run_command0Cscgd7Rtj06ws_25git_sync_integration_test
FNDA:4,_RNCNvMs_NtNtCsk1nGwz09EVE_16syncthing_mcp_rs5tools8git_syncNtB6_9GitClient3add0Cscgd7Rtj06ws_25git_sync_integration_test
FNDA:1,_RNCNvMs_NtNtCsk1nGwz09EVE_16syncthing_mcp_rs5tools8git_syncNtB6_9GitClient4init0Cscgd7Rtj06ws_25git_sync_integration_test
FNDA:2,_RNCNvMs_NtNtCsk1nGwz09EVE_16syncthing_mcp_rs5tools8git_syncNtB6_9GitClient6commit0Cscgd7Rtj06ws_25git_sync_integration_test
FNDA:3,_RNCNvMs_NtNtCsk1nGwz09EVE_16syncthing_mcp_rs5tools8git_syncNtB6_9GitClient8checkout0Cscgd7Rtj06ws_25git_sync_integration_test
FNDA:7,_RNvMNtNtCs1zQjFe0mrqD_16syncthing_mcp_rs5tools8git_syncNtB2_14ConfigExporter14mask_sensitive
FNDA:9,_RNvMNtNtCs1zQjFe0mrqD_16syncthing_mcp_rs5tools8git_syncNtB2_14ConfigExporter3new
FNDA:8,_RNvMNtNtCs1zQjFe0mrqD_16syncthing_mcp_rs5tools8git_syncNtB2_14ConfigExporter7to_json
FNDA:7,_RNvMNtNtCs1zQjFe0mrqD_16syncthing_mcp_rs5tools8git_syncNtB2_14ConfigExporter7to_yaml
FNDA:1,_RNvMs0_NtNtCs1zQjFe0mrqD_16syncthing_mcp_rs5tools8git_syncNtB5_14GitSyncManager11init_remote
FNDA:6,_RNvMs0_NtNtCs1zQjFe0mrqD_16syncthing_mcp_rs5tools8git_syncNtB5_14GitSyncManager13backup_config
FNDA:1,_RNvMs0_NtNtCs1zQjFe0mrqD_16syncthing_mcp_rs5tools8git_syncNtB5_14GitSyncManager14restore_config
FNDA:5,_RNvMs0_NtNtCs1zQjFe0mrqD_16syncthing_mcp_rs5tools8git_syncNtB5_14GitSyncManager3new
FNDA:4,_RNvMs0_NtNtCs1zQjFe0mrqD_16syncthing_mcp_rs5tools8git_syncNtB5_14GitSyncManager4init
FNDA:1,_RNvMs0_NtNtCs1zQjFe0mrqD_16syncthing_mcp_rs5tools8git_syncNtB5_14GitSyncManager4push
FNDA:1,_RNvMs0_NtNtCs1zQjFe0mrqD_16syncthing_mcp_rs5tools8git_syncNtB5_14GitSyncManager8get_diff
FNDA:3,_RNvMs_NtNtCs1zQjFe0mrqD_16syncthing_mcp_rs5tools8git_syncNtB4_9GitClient10clone_from
FNDA:63,_RNvMs_NtNtCs1zQjFe0mrqD_16syncthing_mcp_rs5tools8git_syncNtB4_9GitClient11run_command
FNDA:15,_RNvMs_NtNtCs1zQjFe0mrqD_16syncthing_mcp_rs5tools8git_syncNtB4_9GitClient3add
FNDA:17,_RNvMs_NtNtCs1zQjFe0mrqD_16syncthing_mcp_rs5tools8git_syncNtB4_9GitClient3new
FNDA:8,_RNvMs_NtNtCs1zQjFe0mrqD_16syncthing_mcp_rs5tools8git_syncNtB4_9GitClient4init
FNDA:1,_RNvMs_NtNtCs1zQjFe0mrqD_16syncthing_mcp_rs5tools8git_syncNtB4_9GitClient4push
FNDA:9,_RNvMs_NtNtCs1zQjFe0mrqD_16syncthing_mcp_rs5tools8git_syncNtB4_9GitClient6commit
FNDA:1,_RNvMs_NtNtCs1zQjFe0mrqD_16syncthing_mcp_rs5tools8git_syncNtB4_9GitClient8checkout
FNDA:0,_RNCNCNvMs0_NtNtCs1zQjFe0mrqD_16syncthing_mcp_rs5tools8git_syncNtB9_14GitSyncManager13backup_config00Bd_
FNDA:0,_RNCNCNvMs0_NtNtCs1zQjFe0mrqD_16syncthing_mcp_rs5tools8git_syncNtB9_14GitSyncManager13backup_config0s_0Bd_
FNDA:0,_RNCNCNvMs0_NtNtCs1zQjFe0mrqD_16syncthing_mcp_rs5tools8git_syncNtB9_14GitSyncManager14restore_config00Bd_
FNDA:0,_RNCNCNvMs_NtNtCs1zQjFe0mrqD_16syncthing_mcp_rs5tools8git_syncNtB8_9GitClient10clone_from00Bc_
FNDA:0,_RNCNCNvMs_NtNtCs1zQjFe0mrqD_16syncthing_mcp_rs5tools8git_syncNtB8_9GitClient10clone_from0s0_0Bc_
FNDA:0,_RNCNCNvMs_NtNtCs1zQjFe0mrqD_16syncthing_mcp_rs5tools8git_syncNtB8_9GitClient10clone_from0s1_0Bc_
FNDA:3,_RNCNCNvMs_NtNtCs1zQjFe0mrqD_16syncthing_mcp_rs5tools8git_syncNtB8_9GitClient10clone_from0s_0Bc_
FNDA:0,_RNCNCNvMs_NtNtCs1zQjFe0mrqD_16syncthing_mcp_rs5tools8git_syncNtB8_9GitClient11run_command00Bc_
FNDA:0,_RNCNCNvMs_NtNtCs1zQjFe0mrqD_16syncthing_mcp_rs5tools8git_syncNtB8_9GitClient4init00Bc_
FNDA:1,_RNCNvMs0_NtNtCs1zQjFe0mrqD_16syncthing_mcp_rs5tools8git_syncNtB7_14GitSyncManager11init_remote0Bb_
FNDA:6,_RNCNvMs0_NtNtCs1zQjFe0mrqD_16syncthing_mcp_rs5tools8git_syncNtB7_14GitSyncManager13backup_config0Bb_
FNDA:1,_RNCNvMs0_NtNtCs1zQjFe0mrqD_16syncthing_mcp_rs5tools8git_syncNtB7_14GitSyncManager14restore_config0Bb_
FNDA:4,_RNCNvMs0_NtNtCs1zQjFe0mrqD_16syncthing_mcp_rs5tools8git_syncNtB7_14GitSyncManager4init0Bb_
FNDA:1,_RNCNvMs0_NtNtCs1zQjFe0mrqD_16syncthing_mcp_rs5tools8git_syncNtB7_14GitSyncManager4push0Bb_
FNDA:1,_RNCNvMs0_NtNtCs1zQjFe0mrqD_16syncthing_mcp_rs5tools8git_syncNtB7_14GitSyncManager8get_diff0Bb_
FNDA:3,_RNCNvMs_NtNtCs1zQjFe0mrqD_16syncthing_mcp_rs5tools8git_syncNtB6_9GitClient10clone_from0Ba_
FNDA:63,_RNCNvMs_NtNtCs1zQjFe0mrqD_16syncthing_mcp_rs5tools8git_syncNtB6_9GitClient11run_command0Ba_
FNDA:15,_RNCNvMs_NtNtCs1zQjFe0mrqD_16syncthing_mcp_rs5tools8git_syncNtB6_9GitClient3add0Ba_
FNDA:8,_RNCNvMs_NtNtCs1zQjFe0mrqD_16syncthing_mcp_rs5tools8git_syncNtB6_9GitClient4init0Ba_
FNDA:1,_RNCNvMs_NtNtCs1zQjFe0mrqD_16syncthing_mcp_rs5tools8git_syncNtB6_9GitClient4push0Ba_
FNDA:9,_RNCNvMs_NtNtCs1zQjFe0mrqD_16syncthing_mcp_rs5tools8git_syncNtB6_9GitClient6commit0Ba_
FNDA:1,_RNCNvMs_NtNtCs1zQjFe0mrqD_16syncthing_mcp_rs5tools8git_syncNtB6_9GitClient8checkout0Ba_
FNF:41
FNH:33
DA:13,11
DA:14,11
DA:15,11
DA:22,9
DA:24,9
DA:25,4
DA:26,3
DA:27,3
DA:28,3
DA:29,3
DA:30,3
DA:31,4
DA:32,4
DA:33,4
DA:34,4
DA:35,4
DA:36,4
DA:37,4
DA:38,1
DA:39,1
DA:40,1
DA:41,1
DA:42,3
DA:43,5
DA:46,9
DA:47,2
DA:48,1
DA:49,1
DA:50,1
DA:51,1
DA:52,1
DA:53,8
DA:54,9
DA:57,10
DA:58,10
DA:59,10
DA:62,9
DA:63,9
DA:64,9
DA:74,19
DA:75,19
DA:76,19
DA:79,9
DA:81,9
DA:82,0
DA:83,0
DA:84,0
DA:85,9
DA:86,9
DA:87,9
DA:88,9
DA:91,3
DA:93,3
DA:94,0
DA:95,0
DA:96,3
DA:97,3
DA:98,3
DA:99,3
DA:100,3
DA:102,3
DA:103,3
DA:104,3
DA:105,3
DA:106,3
DA:107,0
DA:108,0
DA:110,3
DA:111,1
DA:112,1
DA:113,1
DA:114,1
DA:115,1
DA:116,2
DA:117,2
DA:118,3
DA:121,19
DA:122,19
DA:123,19
DA:124,19
DA:128,11
DA:129,11
DA:130,11
DA:131,11
DA:132,11
DA:135,1
DA:136,1
DA:137,1
DA:138,1
DA:141,4
DA:142,4
DA:143,4
DA:144,4
DA:147,78
DA:148,78
DA:149,78
DA:150,78
DA:151,78
DA:152,78
DA:153,0
DA:154,0
DA:156,78
DA:157,1
DA:158,1
DA:159,1
DA:160,1
DA:161,1
DA:162,77
DA:164,77
DA:165,78
DA:176,6
DA:177,6
DA:178,6
DA:179,6
DA:180,6
DA:181,6
DA:184,5
DA:185,5
DA:186,5
DA:189,1
DA:190,1
DA:191,1
DA:195,8
DA:196,8
DA:197,8
DA:199,8
DA:200,8
DA:202,8
DA:203,8
DA:205,8
DA:206,0
DA:207,0
DA:208,8
DA:209,0
DA:210,0
DA:212,8
DA:213,8
DA:216,8
DA:217,8
DA:218,8
DA:219,8
DA:220,8
DA:225,4
DA:226,4
DA:228,4
DA:229,4
DA:230,0
DA:231,0
DA:233,4
DA:235,4
DA:236,4
DA:239,2
DA:240,2
DA:241,2
DA:242,2
DA:243,2
DA:246,1
DA:247,1
DA:248,1
BRF:0
BRH:0
LF:188
LH:158
end_of_record
SF:/home/nicholas/git/nicholaswilde/syncthing-mcp-rs/src/tools/mod.rs
FN:149,_RNvMs_NtCsk1nGwz09EVE_16syncthing_mcp_rs5toolsNtB4_12ToolRegistry10list_tools
FN:115,_RNvMs_NtCsk1nGwz09EVE_16syncthing_mcp_rs5toolsNtB4_12ToolRegistry3new
FN:182,_RNvMs_NtCsk1nGwz09EVE_16syncthing_mcp_rs5toolsNtB4_12ToolRegistry8get_tool
FN:188,_RNvNtCsk1nGwz09EVE_16syncthing_mcp_rs5tools15create_registry
FN:108,_RNvXNtCsk1nGwz09EVE_16syncthing_mcp_rs5toolsNtB2_12ToolRegistryNtNtCs8nPosuWgJFh_4core7default7Default7default
FN:123,_RINvMs_NtCsk1nGwz09EVE_16syncthing_mcp_rs5toolsNtB5_12ToolRegistry8registerNvNtB5_12self_healing20monitor_self_healingNCB1b_0EB7_
FN:123,_RINvMs_NtCsk1nGwz09EVE_16syncthing_mcp_rs5toolsNtB5_12ToolRegistry8registerNvNtB5_4diff14diff_conflictsNCB1b_0EB7_
FN:123,_RINvMs_NtCsk1nGwz09EVE_16syncthing_mcp_rs5toolsNtB5_12ToolRegistry8registerNvNtB5_4diff27preview_conflict_resolutionNCB1b_0EB7_
FN:123,_RINvMs_NtCsk1nGwz09EVE_16syncthing_mcp_rs5toolsNtB5_12ToolRegistry8registerNvNtB5_6config16replicate_configNCB1b_0EB7_
FN:123,_RINvMs_NtCsk1nGwz09EVE_16syncthing_mcp_rs5toolsNtB5_12ToolRegistry8registerNvNtB5_6config21diff_instance_configsNCB1b_0EB7_
FN:123,_RINvMs_NtCsk1nGwz09EVE_16syncthing_mcp_rs5toolsNtB5_12ToolRegistry8registerNvNtB5_6config22merge_instance_configsNCB1b_0EB7_
FN:123,_RINvMs_NtCsk1nGwz09EVE_16syncthing_mcp_rs5toolsNtB5_12ToolRegistry8registerNvNtB5_6system13analyze_errorNCB1b_0EB7_
FN:123,_RINvMs_NtCsk1nGwz09EVE_16syncthing_mcp_rs5toolsNtB5_12ToolRegistry8registerNvNtB5_6system14get_system_logNCB1b_0EB7_
FN:123,_RINvMs_NtCsk1nGwz09EVE_16syncthing_mcp_rs5toolsNtB5_12ToolRegistry8registerNvNtB5_6system14list_instancesNCB1b_0EB7_
FN:123,_RINvMs_NtCsk1nGwz09EVE_16syncthing_mcp_rs5toolsNtB5_12ToolRegistry8registerNvNtB5_6system15get_sync_statusNCB1b_0EB7_
FN:123,_RINvMs_NtCsk1nGwz09EVE_16syncthing_mcp_rs5toolsNtB5_12ToolRegistry8registerNvNtB5_6system15maintain_systemNCB1b_0EB7_
FN:123,_RINvMs_NtCsk1nGwz09EVE_16syncthing_mcp_rs5toolsNtB5_12ToolRegistry8registerNvNtB5_6system16get_system_statsNCB1b_0EB7_
FN:123,_RINvMs_NtCsk1nGwz09EVE_16syncthing_mcp_rs5toolsNtB5_12ToolRegistry8registerNvNtB5_6system19get_instance_healthNCB1b_0EB7_
FN:123,_RINvMs_NtCsk1nGwz09EVE_16syncthing_mcp_rs5toolsNtB5_12ToolRegistry8registerNvNtB5_6system22get_system_connectionsNCB1b_0EB7_
FN:123,_RINvMs_NtCsk1nGwz09EVE_16syncthing_mcp_rs5toolsNtB5_12ToolRegistry8registerNvNtB5_7browser13browse_folderNCB1b_0EB7_
FN:123,_RINvMs_NtCsk1nGwz09EVE_16syncthing_mcp_rs5toolsNtB5_12ToolRegistry8registerNvNtB5_7devices14manage_devicesNCB1b_0EB7_
FN:123,_RINvMs_NtCsk1nGwz09EVE_16syncthing_mcp_rs5toolsNtB5_12ToolRegistry8registerNvNtB5_7devices16get_device_statsNCB1b_0EB7_
FN:123,_RINvMs_NtCsk1nGwz09EVE_16syncthing_mcp_rs5toolsNtB5_12ToolRegistry8registerNvNtB5_7folders14manage_foldersNCB1b_0EB7_
FN:123,_RINvMs_NtCsk1nGwz09EVE_16syncthing_mcp_rs5toolsNtB5_12ToolRegistry8registerNvNtB5_7folders14manage_ignoresNCB1b_0EB7_
FN:123,_RINvMs_NtCsk1nGwz09EVE_16syncthing_mcp_rs5toolsNtB5_12ToolRegistry8registerNvNtB5_7folders16get_folder_statsNCB1b_0EB7_
FN:123,_RINvMs_NtCsk1nGwz09EVE_16syncthing_mcp_rs5toolsNtB5_12ToolRegistry8registerNvNtB5_7folders17configure_sharingNCB1b_0EB7_
FN:123,_RINvMs_NtCsk1nGwz09EVE_16syncthing_mcp_rs5toolsNtB5_12ToolRegistry8registerNvNtB5_9bandwidth20get_bandwidth_statusNCB1b_0EB7_
FN:123,_RINvMs_NtCsk1nGwz09EVE_16syncthing_mcp_rs5toolsNtB5_12ToolRegistry8registerNvNtB5_9bandwidth20set_bandwidth_limitsNCB1b_0EB7_
FN:123,_RINvMs_NtCsk1nGwz09EVE_16syncthing_mcp_rs5toolsNtB5_12ToolRegistry8registerNvNtB5_9bandwidth23set_performance_profileNCB1b_0EB7_
FN:123,_RINvMs_NtCsk1nGwz09EVE_16syncthing_mcp_rs5toolsNtB5_12ToolRegistry8registerNvNtB5_9conflicts14list_conflictsNCB1b_0EB7_
FN:123,_RINvMs_NtCsk1nGwz09EVE_16syncthing_mcp_rs5toolsNtB5_12ToolRegistry8registerNvNtB5_9conflicts15delete_conflictNCB1b_0EB7_
FN:123,_RINvMs_NtCsk1nGwz09EVE_16syncthing_mcp_rs5toolsNtB5_12ToolRegistry8registerNvNtB5_9conflicts16resolve_conflictNCB1b_0EB7_
FN:123,_RINvMs_NtCsk1nGwz09EVE_16syncthing_mcp_rs5toolsNtB5_12ToolRegistry8registerNvNtB5_9dashboard20get_global_dashboardNCB1b_0EB7_
FN:137,_RNCINvMs_NtCsk1nGwz09EVE_16syncthing_mcp_rs5toolsNtB7_12ToolRegistry8registerNvNtB7_12self_healing20monitor_self_healingNCB1d_0E0B9_
FN:137,_RNCINvMs_NtCsk1nGwz09EVE_16syncthing_mcp_rs5toolsNtB7_12ToolRegistry8registerNvNtB7_4diff14diff_conflictsNCB1d_0E0B9_
FN:137,_RNCINvMs_NtCsk1nGwz09EVE_16syncthing_mcp_rs5toolsNtB7_12ToolRegistry8registerNvNtB7_4diff27preview_conflict_resolutionNCB1d_0E0B9_
FN:137,_RNCINvMs_NtCsk1nGwz09EVE_16syncthing_mcp_rs5toolsNtB7_12ToolRegistry8registerNvNtB7_6config16replicate_configNCB1d_0E0B9_
FN:137,_RNCINvMs_NtCsk1nGwz09EVE_16syncthing_mcp_rs5toolsNtB7_12ToolRegistry8registerNvNtB7_6config21diff_instance_configsNCB1d_0E0B9_
FN:137,_RNCINvMs_NtCsk1nGwz09EVE_16syncthing_mcp_rs5toolsNtB7_12ToolRegistry8registerNvNtB7_6config22merge_instance_configsNCB1d_0E0B9_
FN:137,_RNCINvMs_NtCsk1nGwz09EVE_16syncthing_mcp_rs5toolsNtB7_12ToolRegistry8registerNvNtB7_6system13analyze_errorNCB1d_0E0B9_
FN:137,_RNCINvMs_NtCsk1nGwz09EVE_16syncthing_mcp_rs5toolsNtB7_12ToolRegistry8registerNvNtB7_6system14get_system_logNCB1d_0E0B9_
FN:137,_RNCINvMs_NtCsk1nGwz09EVE_16syncthing_mcp_rs5toolsNtB7_12ToolRegistry8registerNvNtB7_6system14list_instancesNCB1d_0E0B9_
FN:137,_RNCINvMs_NtCsk1nGwz09EVE_16syncthing_mcp_rs5toolsNtB7_12ToolRegistry8registerNvNtB7_6system15get_sync_statusNCB1d_0E0B9_
FN:137,_RNCINvMs_NtCsk1nGwz09EVE_16syncthing_mcp_rs5toolsNtB7_12ToolRegistry8registerNvNtB7_6system15maintain_systemNCB1d_0E0B9_
FN:137,_RNCINvMs_NtCsk1nGwz09EVE_16syncthing_mcp_rs5toolsNtB7_12ToolRegistry8registerNvNtB7_6system16get_system_statsNCB1d_0E0B9_
FN:137,_RNCINvMs_NtCsk1nGwz09EVE_16syncthing_mcp_rs5toolsNtB7_12ToolRegistry8registerNvNtB7_6system19get_instance_healthNCB1d_0E0B9_
FN:137,_RNCINvMs_NtCsk1nGwz09EVE_16syncthing_mcp_rs5toolsNtB7_12ToolRegistry8registerNvNtB7_6system22get_system_connectionsNCB1d_0E0B9_
FN:137,_RNCINvMs_NtCsk1nGwz09EVE_16syncthing_mcp_rs5toolsNtB7_12ToolRegistry8registerNvNtB7_7browser13browse_folderNCB1d_0E0B9_
FN:137,_RNCINvMs_NtCsk1nGwz09EVE_16syncthing_mcp_rs5toolsNtB7_12ToolRegistry8registerNvNtB7_7devices14manage_devicesNCB1d_0E0B9_
FN:137,_RNCINvMs_NtCsk1nGwz09EVE_16syncthing_mcp_rs5toolsNtB7_12ToolRegistry8registerNvNtB7_7devices16get_device_statsNCB1d_0E0B9_
FN:137,_RNCINvMs_NtCsk1nGwz09EVE_16syncthing_mcp_rs5toolsNtB7_12ToolRegistry8registerNvNtB7_7folders14manage_foldersNCB1d_0E0B9_
FN:137,_RNCINvMs_NtCsk1nGwz09EVE_16syncthing_mcp_rs5toolsNtB7_12ToolRegistry8registerNvNtB7_7folders14manage_ignoresNCB1d_0E0B9_
FN:137,_RNCINvMs_NtCsk1nGwz09EVE_16syncthing_mcp_rs5toolsNtB7_12ToolRegistry8registerNvNtB7_7folders16get_folder_statsNCB1d_0E0B9_
FN:137,_RNCINvMs_NtCsk1nGwz09EVE_16syncthing_mcp_rs5toolsNtB7_12ToolRegistry8registerNvNtB7_7folders17configure_sharingNCB1d_0E0B9_
FN:137,_RNCINvMs_NtCsk1nGwz09EVE_16syncthing_mcp_rs5toolsNtB7_12ToolRegistry8registerNvNtB7_9bandwidth20get_bandwidth_statusNCB1d_0E0B9_
FN:137,_RNCINvMs_NtCsk1nGwz09EVE_16syncthing_mcp_rs5toolsNtB7_12ToolRegistry8registerNvNtB7_9bandwidth20set_bandwidth_limitsNCB1d_0E0B9_
FN:137,_RNCINvMs_NtCsk1nGwz09EVE_16syncthing_mcp_rs5toolsNtB7_12ToolRegistry8registerNvNtB7_9bandwidth23set_performance_profileNCB1d_0E0B9_
FN:137,_RNCINvMs_NtCsk1nGwz09EVE_16syncthing_mcp_rs5toolsNtB7_12ToolRegistry8registerNvNtB7_9conflicts14list_conflictsNCB1d_0E0B9_
FN:137,_RNCINvMs_NtCsk1nGwz09EVE_16syncthing_mcp_rs5toolsNtB7_12ToolRegistry8registerNvNtB7_9conflicts15delete_conflictNCB1d_0E0B9_
FN:137,_RNCINvMs_NtCsk1nGwz09EVE_16syncthing_mcp_rs5toolsNtB7_12ToolRegistry8registerNvNtB7_9conflicts16resolve_conflictNCB1d_0E0B9_
FN:137,_RNCINvMs_NtCsk1nGwz09EVE_16syncthing_mcp_rs5toolsNtB7_12ToolRegistry8registerNvNtB7_9dashboard20get_global_dashboardNCB1d_0E0B9_
FN:157,_RNCNvMs_NtCsk1nGwz09EVE_16syncthing_mcp_rs5toolsNtB6_12ToolRegistry10list_tools0B8_
FN:177,_RNCNvMs_NtCsk1nGwz09EVE_16syncthing_mcp_rs5toolsNtB6_12ToolRegistry10list_toolss0_0B8_
FN:158,_RNCNvMs_NtCsk1nGwz09EVE_16syncthing_mcp_rs5toolsNtB6_12ToolRegistry10list_toolss_0B8_
FN:108,_RNvXNtCs1zQjFe0mrqD_16syncthing_mcp_rs5toolsNtB2_12ToolRegistryNtNtCs8nPosuWgJFh_4core7default7Default7default
FN:123,_RINvMs_NtCs1zQjFe0mrqD_16syncthing_mcp_rs5toolsNtB5_12ToolRegistry8registerNvNtB5_12self_healing20monitor_self_healingNCB1b_0EB7_
FN:123,_RINvMs_NtCs1zQjFe0mrqD_16syncthing_mcp_rs5toolsNtB5_12ToolRegistry8registerNvNtB5_4diff14diff_conflictsNCB1b_0EB7_
FN:123,_RINvMs_NtCs1zQjFe0mrqD_16syncthing_mcp_rs5toolsNtB5_12ToolRegistry8registerNvNtB5_4diff27preview_conflict_resolutionNCB1b_0EB7_
FN:123,_RINvMs_NtCs1zQjFe0mrqD_16syncthing_mcp_rs5toolsNtB5_12ToolRegistry8registerNvNtB5_6config16replicate_configNCB1b_0EB7_
FN:123,_RINvMs_NtCs1zQjFe0mrqD_16syncthing_mcp_rs5toolsNtB5_12ToolRegistry8registerNvNtB5_6config21diff_instance_configsNCB1b_0EB7_
FN:123,_RINvMs_NtCs1zQjFe0mrqD_16syncthing_mcp_rs5toolsNtB5_12ToolRegistry8registerNvNtB5_6config22merge_instance_configsNCB1b_0EB7_
FN:123,_RINvMs_NtCs1zQjFe0mrqD_16syncthing_mcp_rs5toolsNtB5_12ToolRegistry8registerNvNtB5_6system13analyze_errorNCB1b_0EB7_
FN:123,_RINvMs_NtCs1zQjFe0mrqD_16syncthing_mcp_rs5toolsNtB5_12ToolRegistry8registerNvNtB5_6system14get_system_logNCB1b_0EB7_
FN:123,_RINvMs_NtCs1zQjFe0mrqD_16syncthing_mcp_rs5toolsNtB5_12ToolRegistry8registerNvNtB5_6system14list_instancesNCB1b_0EB7_
FN:123,_RINvMs_NtCs1zQjFe0mrqD_16syncthing_mcp_rs5toolsNtB5_12ToolRegistry8registerNvNtB5_6system15get_sync_statusNCB1b_0EB7_
FN:123,_RINvMs_NtCs1zQjFe0mrqD_16syncthing_mcp_rs5toolsNtB5_12ToolRegistry8registerNvNtB5_6system15maintain_systemNCB1b_0EB7_
FN:123,_RINvMs_NtCs1zQjFe0mrqD_16syncthing_mcp_rs5toolsNtB5_12ToolRegistry8registerNvNtB5_6system16get_system_statsNCB1b_0EB7_
FN:123,_RINvMs_NtCs1zQjFe0mrqD_16syncthing_mcp_rs5toolsNtB5_12ToolRegistry8registerNvNtB5_6system19get_instance_healthNCB1b_0EB7_
FN:123,_RINvMs_NtCs1zQjFe0mrqD_16syncthing_mcp_rs5toolsNtB5_12ToolRegistry8registerNvNtB5_6system22get_system_connectionsNCB1b_0EB7_
FN:123,_RINvMs_NtCs1zQjFe0mrqD_16syncthing_mcp_rs5toolsNtB5_12ToolRegistry8registerNvNtB5_7browser13browse_folderNCB1b_0EB7_
FN:123,_RINvMs_NtCs1zQjFe0mrqD_16syncthing_mcp_rs5toolsNtB5_12ToolRegistry8registerNvNtB5_7devices14manage_devicesNCB1b_0EB7_
FN:123,_RINvMs_NtCs1zQjFe0mrqD_16syncthing_mcp_rs5toolsNtB5_12ToolRegistry8registerNvNtB5_7devices16get_device_statsNCB1b_0EB7_
FN:123,_RINvMs_NtCs1zQjFe0mrqD_16syncthing_mcp_rs5toolsNtB5_12ToolRegistry8registerNvNtB5_7folders14manage_foldersNCB1b_0EB7_
FN:123,_RINvMs_NtCs1zQjFe0mrqD_16syncthing_mcp_rs5toolsNtB5_12ToolRegistry8registerNvNtB5_7folders14manage_ignoresNCB1b_0EB7_
FN:123,_RINvMs_NtCs1zQjFe0mrqD_16syncthing_mcp_rs5toolsNtB5_12ToolRegistry8registerNvNtB5_7folders16get_folder_statsNCB1b_0EB7_
FN:123,_RINvMs_NtCs1zQjFe0mrqD_16syncthing_mcp_rs5toolsNtB5_12ToolRegistry8registerNvNtB5_7folders17configure_sharingNCB1b_0EB7_
FN:123,_RINvMs_NtCs1zQjFe0mrqD_16syncthing_mcp_rs5toolsNtB5_12ToolRegistry8registerNvNtB5_9bandwidth20get_bandwidth_statusNCB1b_0EB7_
FN:123,_RINvMs_NtCs1zQjFe0mrqD_16syncthing_mcp_rs5toolsNtB5_12ToolRegistry8registerNvNtB5_9bandwidth20set_bandwidth_limitsNCB1b_0EB7_
FN:123,_RINvMs_NtCs1zQjFe0mrqD_16syncthing_mcp_rs5toolsNtB5_12ToolRegistry8registerNvNtB5_9bandwidth23set_performance_profileNCB1b_0EB7_
FN:123,_RINvMs_NtCs1zQjFe0mrqD_16syncthing_mcp_rs5toolsNtB5_12ToolRegistry8registerNvNtB5_9conflicts14list_conflictsNCB1b_0EB7_
FN:123,_RINvMs_NtCs1zQjFe0mrqD_16syncthing_mcp_rs5toolsNtB5_12ToolRegistry8registerNvNtB5_9conflicts15delete_conflictNCB1b_0EB7_
FN:123,_RINvMs_NtCs1zQjFe0mrqD_16syncthing_mcp_rs5toolsNtB5_12ToolRegistry8registerNvNtB5_9conflicts16resolve_conflictNCB1b_0EB7_
FN:123,_RINvMs_NtCs1zQjFe0mrqD_16syncthing_mcp_rs5toolsNtB5_12ToolRegistry8registerNvNtB5_9dashboard20get_global_dashboardNCB1b_0EB7_
FN:137,_RNCINvMs_NtCs1zQjFe0mrqD_16syncthing_mcp_rs5toolsNtB7_12ToolRegistry8registerNvNtB7_12self_healing20monitor_self_healingNCB1d_0E0B9_
FN:137,_RNCINvMs_NtCs1zQjFe0mrqD_16syncthing_mcp_rs5toolsNtB7_12ToolRegistry8registerNvNtB7_4diff14diff_conflictsNCB1d_0E0B9_
FN:137,_RNCINvMs_NtCs1zQjFe0mrqD_16syncthing_mcp_rs5toolsNtB7_12ToolRegistry8registerNvNtB7_4diff27preview_conflict_resolutionNCB1d_0E0B9_
FN:137,_RNCINvMs_NtCs1zQjFe0mrqD_16syncthing_mcp_rs5toolsNtB7_12ToolRegistry8registerNvNtB7_6config16replicate_configNCB1d_0E0B9_
FN:137,_RNCINvMs_NtCs1zQjFe0mrqD_16syncthing_mcp_rs5toolsNtB7_12ToolRegistry8registerNvNtB7_6config21diff_instance_configsNCB1d_0E0B9_
FN:137,_RNCINvMs_NtCs1zQjFe0mrqD_16syncthing_mcp_rs5toolsNtB7_12ToolRegistry8registerNvNtB7_6config22merge_instance_configsNCB1d_0E0B9_
FN:137,_RNCINvMs_NtCs1zQjFe0mrqD_16syncthing_mcp_rs5toolsNtB7_12ToolRegistry8registerNvNtB7_6system13analyze_errorNCB1d_0E0B9_
FN:137,_RNCINvMs_NtCs1zQjFe0mrqD_16syncthing_mcp_rs5toolsNtB7_12ToolRegistry8registerNvNtB7_6system14get_system_logNCB1d_0E0B9_
FN:137,_RNCINvMs_NtCs1zQjFe0mrqD_16syncthing_mcp_rs5toolsNtB7_12ToolRegistry8registerNvNtB7_6system14list_instancesNCB1d_0E0B9_
FN:137,_RNCINvMs_NtCs1zQjFe0mrqD_16syncthing_mcp_rs5toolsNtB7_12ToolRegistry8registerNvNtB7_6system15get_sync_statusNCB1d_0E0B9_
FN:137,_RNCINvMs_NtCs1zQjFe0mrqD_16syncthing_mcp_rs5toolsNtB7_12ToolRegistry8registerNvNtB7_6system15maintain_systemNCB1d_0E0B9_
FN:137,_RNCINvMs_NtCs1zQjFe0mrqD_16syncthing_mcp_rs5toolsNtB7_12ToolRegistry8registerNvNtB7_6system16get_system_statsNCB1d_0E0B9_
FN:137,_RNCINvMs_NtCs1zQjFe0mrqD_16syncthing_mcp_rs5toolsNtB7_12ToolRegistry8registerNvNtB7_6system19get_instance_healthNCB1d_0E0B9_
FN:137,_RNCINvMs_NtCs1zQjFe0mrqD_16syncthing_mcp_rs5toolsNtB7_12ToolRegistry8registerNvNtB7_6system22get_system_connectionsNCB1d_0E0B9_
FN:137,_RNCINvMs_NtCs1zQjFe0mrqD_16syncthing_mcp_rs5toolsNtB7_12ToolRegistry8registerNvNtB7_7browser13browse_folderNCB1d_0E0B9_
FN:137,_RNCINvMs_NtCs1zQjFe0mrqD_16syncthing_mcp_rs5toolsNtB7_12ToolRegistry8registerNvNtB7_7devices14manage_devicesNCB1d_0E0B9_
FN:137,_RNCINvMs_NtCs1zQjFe0mrqD_16syncthing_mcp_rs5toolsNtB7_12ToolRegistry8registerNvNtB7_7devices16get_device_statsNCB1d_0E0B9_
FN:137,_RNCINvMs_NtCs1zQjFe0mrqD_16syncthing_mcp_rs5toolsNtB7_12ToolRegistry8registerNvNtB7_7folders14manage_foldersNCB1d_0E0B9_
FN:137,_RNCINvMs_NtCs1zQjFe0mrqD_16syncthing_mcp_rs5toolsNtB7_12ToolRegistry8registerNvNtB7_7folders14manage_ignoresNCB1d_0E0B9_
FN:137,_RNCINvMs_NtCs1zQjFe0mrqD_16syncthing_mcp_rs5toolsNtB7_12ToolRegistry8registerNvNtB7_7folders16get_folder_statsNCB1d_0E0B9_
FN:137,_RNCINvMs_NtCs1zQjFe0mrqD_16syncthing_mcp_rs5toolsNtB7_12ToolRegistry8registerNvNtB7_7folders17configure_sharingNCB1d_0E0B9_
FN:137,_RNCINvMs_NtCs1zQjFe0mrqD_16syncthing_mcp_rs5toolsNtB7_12ToolRegistry8registerNvNtB7_9bandwidth20get_bandwidth_statusNCB1d_0E0B9_
FN:137,_RNCINvMs_NtCs1zQjFe0mrqD_16syncthing_mcp_rs5toolsNtB7_12ToolRegistry8registerNvNtB7_9bandwidth20set_bandwidth_limitsNCB1d_0E0B9_
FN:137,_RNCINvMs_NtCs1zQjFe0mrqD_16syncthing_mcp_rs5toolsNtB7_12ToolRegistry8registerNvNtB7_9bandwidth23set_performance_profileNCB1d_0E0B9_
FN:137,_RNCINvMs_NtCs1zQjFe0mrqD_16syncthing_mcp_rs5toolsNtB7_12ToolRegistry8registerNvNtB7_9conflicts14list_conflictsNCB1d_0E0B9_
FN:137,_RNCINvMs_NtCs1zQjFe0mrqD_16syncthing_mcp_rs5toolsNtB7_12ToolRegistry8registerNvNtB7_9conflicts15delete_conflictNCB1d_0E0B9_
FN:137,_RNCINvMs_NtCs1zQjFe0mrqD_16syncthing_mcp_rs5toolsNtB7_12ToolRegistry8registerNvNtB7_9conflicts16resolve_conflictNCB1d_0E0B9_
FN:137,_RNCINvMs_NtCs1zQjFe0mrqD_16syncthing_mcp_rs5toolsNtB7_12ToolRegistry8registerNvNtB7_9dashboard20get_global_dashboardNCB1d_0E0B9_
FN:157,_RNCNvMs_NtCs1zQjFe0mrqD_16syncthing_mcp_rs5toolsNtB6_12ToolRegistry10list_tools0B8_
FN:177,_RNCNvMs_NtCs1zQjFe0mrqD_16syncthing_mcp_rs5toolsNtB6_12ToolRegistry10list_toolss0_0B8_
FN:158,_RNCNvMs_NtCs1zQjFe0mrqD_16syncthing_mcp_rs5toolsNtB6_12ToolRegistry10list_toolss_0B8_
FN:149,_RNvMs_NtCs1zQjFe0mrqD_16syncthing_mcp_rs5toolsNtB4_12ToolRegistry10list_tools
FN:115,_RNvMs_NtCs1zQjFe0mrqD_16syncthing_mcp_rs5toolsNtB4_12ToolRegistry3new
FN:182,_RNvMs_NtCs1zQjFe0mrqD_16syncthing_mcp_rs5toolsNtB4_12ToolRegistry8get_tool
FN:188,_RNvNtCs1zQjFe0mrqD_16syncthing_mcp_rs5tools15create_registry
FNDA:0,_RNvMs_NtCsk1nGwz09EVE_16syncthing_mcp_rs5toolsNtB4_12ToolRegistry10list_tools
FNDA:0,_RNvMs_NtCsk1nGwz09EVE_16syncthing_mcp_rs5toolsNtB4_12ToolRegistry3new
FNDA:0,_RNvMs_NtCsk1nGwz09EVE_16syncthing_mcp_rs5toolsNtB4_12ToolRegistry8get_tool
FNDA:0,_RNvNtCsk1nGwz09EVE_16syncthing_mcp_rs5tools15create_registry
FNDA:0,_RNvXNtCsk1nGwz09EVE_16syncthing_mcp_rs5toolsNtB2_12ToolRegistryNtNtCs8nPosuWgJFh_4core7default7Default7default
FNDA:0,_RINvMs_NtCsk1nGwz09EVE_16syncthing_mcp_rs5toolsNtB5_12ToolRegistry8registerNvNtB5_12self_healing20monitor_self_healingNCB1b_0EB7_
FNDA:0,_RINvMs_NtCsk1nGwz09EVE_16syncthing_mcp_rs5toolsNtB5_12ToolRegistry8registerNvNtB5_4diff14diff_conflictsNCB1b_0EB7_
FNDA:0,_RINvMs_NtCsk1nGwz09EVE_16syncthing_mcp_rs5toolsNtB5_12ToolRegistry8registerNvNtB5_4diff27preview_conflict_resolutionNCB1b_0EB7_
FNDA:0,_RINvMs_NtCsk1nGwz09EVE_16syncthing_mcp_rs5toolsNtB5_12ToolRegistry8registerNvNtB5_6config16replicate_configNCB1b_0EB7_
FNDA:0,_RINvMs_NtCsk1nGwz09EVE_16syncthing_mcp_rs5toolsNtB5_12ToolRegistry8registerNvNtB5_6config21diff_instance_configsNCB1b_0EB7_
FNDA:0,_RINvMs_NtCsk1nGwz09EVE_16syncthing_mcp_rs5toolsNtB5_12ToolRegistry8registerNvNtB5_6config22merge_instance_configsNCB1b_0EB7_
FNDA:0,_RINvMs_NtCsk1nGwz09EVE_16syncthing_mcp_rs5toolsNtB5_12ToolRegistry8registerNvNtB5_6system13analyze_errorNCB1b_0EB7_
FNDA:0,_RINvMs_NtCsk1nGwz09EVE_16syncthing_mcp_rs5toolsNtB5_12ToolRegistry8registerNvNtB5_6system14get_system_logNCB1b_0EB7_
FNDA:0,_RINvMs_NtCsk1nGwz09EVE_16syncthing_mcp_rs5toolsNtB5_12ToolRegistry8registerNvNtB5_6system14list_instancesNCB1b_0EB7_
FNDA:0,_RINvMs_NtCsk1nGwz09EVE_16syncthing_mcp_rs5toolsNtB5_12ToolRegistry8registerNvNtB5_6system15get_sync_statusNCB1b_0EB7_
FNDA:0,_RINvMs_NtCsk1nGwz09EVE_16syncthing_mcp_rs5toolsNtB5_12ToolRegistry8registerNvNtB5_6system15maintain_systemNCB1b_0EB7_
FNDA:0,_RINvMs_NtCsk1nGwz09EVE_16syncthing_mcp_rs5toolsNtB5_12ToolRegistry8registerNvNtB5_6system16get_system_statsNCB1b_0EB7_
FNDA:0,_RINvMs_NtCsk1nGwz09EVE_16syncthing_mcp_rs5toolsNtB5_12ToolRegistry8registerNvNtB5_6system19get_instance_healthNCB1b_0EB7_
FNDA:0,_RINvMs_NtCsk1nGwz09EVE_16syncthing_mcp_rs5toolsNtB5_12ToolRegistry8registerNvNtB5_6system22get_system_connectionsNCB1b_0EB7_
FNDA:0,_RINvMs_NtCsk1nGwz09EVE_16syncthing_mcp_rs5toolsNtB5_12ToolRegistry8registerNvNtB5_7browser13browse_folderNCB1b_0EB7_
FNDA:0,_RINvMs_NtCsk1nGwz09EVE_16syncthing_mcp_rs5toolsNtB5_12ToolRegistry8registerNvNtB5_7devices14manage_devicesNCB1b_0EB7_
FNDA:0,_RINvMs_NtCsk1nGwz09EVE_16syncthing_mcp_rs5toolsNtB5_12ToolRegistry8registerNvNtB5_7devices16get_device_statsNCB1b_0EB7_
FNDA:0,_RINvMs_NtCsk1nGwz09EVE_16syncthing_mcp_rs5toolsNtB5_12ToolRegistry8registerNvNtB5_7folders14manage_foldersNCB1b_0EB7_
FNDA:0,_RINvMs_NtCsk1nGwz09EVE_16syncthing_mcp_rs5toolsNtB5_12ToolRegistry8registerNvNtB5_7folders14manage_ignoresNCB1b_0EB7_
FNDA:0,_RINvMs_NtCsk1nGwz09EVE_16syncthing_mcp_rs5toolsNtB5_12ToolRegistry8registerNvNtB5_7folders16get_folder_statsNCB1b_0EB7_
FNDA:0,_RINvMs_NtCsk1nGwz09EVE_16syncthing_mcp_rs5toolsNtB5_12ToolRegistry8registerNvNtB5_7folders17configure_sharingNCB1b_0EB7_
FNDA:0,_RINvMs_NtCsk1nGwz09EVE_16syncthing_mcp_rs5toolsNtB5_12ToolRegistry8registerNvNtB5_9bandwidth20get_bandwidth_statusNCB1b_0EB7_
FNDA:0,_RINvMs_NtCsk1nGwz09EVE_16syncthing_mcp_rs5toolsNtB5_12ToolRegistry8registerNvNtB5_9bandwidth20set_bandwidth_limitsNCB1b_0EB7_
FNDA:0,_RINvMs_NtCsk1nGwz09EVE_16syncthing_mcp_rs5toolsNtB5_12ToolRegistry8registerNvNtB5_9bandwidth23set_performance_profileNCB1b_0EB7_
FNDA:0,_RINvMs_NtCsk1nGwz09EVE_16syncthing_mcp_rs5toolsNtB5_12ToolRegistry8registerNvNtB5_9conflicts14list_conflictsNCB1b_0EB7_
FNDA:0,_RINvMs_NtCsk1nGwz09EVE_16syncthing_mcp_rs5toolsNtB5_12ToolRegistry8registerNvNtB5_9conflicts15delete_conflictNCB1b_0EB7_
FNDA:0,_RINvMs_NtCsk1nGwz09EVE_16syncthing_mcp_rs5toolsNtB5_12ToolRegistry8registerNvNtB5_9conflicts16resolve_conflictNCB1b_0EB7_
FNDA:0,_RINvMs_NtCsk1nGwz09EVE_16syncthing_mcp_rs5toolsNtB5_12ToolRegistry8registerNvNtB5_9dashboard20get_global_dashboardNCB1b_0EB7_
FNDA:0,_RNCINvMs_NtCsk1nGwz09EVE_16syncthing_mcp_rs5toolsNtB7_12ToolRegistry8registerNvNtB7_12self_healing20monitor_self_healingNCB1d_0E0B9_
FNDA:0,_RNCINvMs_NtCsk1nGwz09EVE_16syncthing_mcp_rs5toolsNtB7_12ToolRegistry8registerNvNtB7_4diff14diff_conflictsNCB1d_0E0B9_
FNDA:0,_RNCINvMs_NtCsk1nGwz09EVE_16syncthing_mcp_rs5toolsNtB7_12ToolRegistry8registerNvNtB7_4diff27preview_conflict_resolutionNCB1d_0E0B9_
FNDA:0,_RNCINvMs_NtCsk1nGwz09EVE_16syncthing_mcp_rs5toolsNtB7_12ToolRegistry8registerNvNtB7_6config16replicate_configNCB1d_0E0B9_
FNDA:0,_RNCINvMs_NtCsk1nGwz09EVE_16syncthing_mcp_rs5toolsNtB7_12ToolRegistry8registerNvNtB7_6config21diff_instance_configsNCB1d_0E0B9_
FNDA:0,_RNCINvMs_NtCsk1nGwz09EVE_16syncthing_mcp_rs5toolsNtB7_12ToolRegistry8registerNvNtB7_6config22merge_instance_configsNCB1d_0E0B9_
FNDA:0,_RNCINvMs_NtCsk1nGwz09EVE_16syncthing_mcp_rs5toolsNtB7_12ToolRegistry8registerNvNtB7_6system13analyze_errorNCB1d_0E0B9_
FNDA:0,_RNCINvMs_NtCsk1nGwz09EVE_16syncthing_mcp_rs5toolsNtB7_12ToolRegistry8registerNvNtB7_6system14get_system_logNCB1d_0E0B9_
FNDA:0,_RNCINvMs_NtCsk1nGwz09EVE_16syncthing_mcp_rs5toolsNtB7_12ToolRegistry8registerNvNtB7_6system14list_instancesNCB1d_0E0B9_
FNDA:0,_RNCINvMs_NtCsk1nGwz09EVE_16syncthing_mcp_rs5toolsNtB7_12ToolRegistry8registerNvNtB7_6system15get_sync_statusNCB1d_0E0B9_
FNDA:0,_RNCINvMs_NtCsk1nGwz09EVE_16syncthing_mcp_rs5toolsNtB7_12ToolRegistry8registerNvNtB7_6system15maintain_systemNCB1d_0E0B9_
FNDA:0,_RNCINvMs_NtCsk1nGwz09EVE_16syncthing_mcp_rs5toolsNtB7_12ToolRegistry8registerNvNtB7_6system16get_system_statsNCB1d_0E0B9_
FNDA:0,_RNCINvMs_NtCsk1nGwz09EVE_16syncthing_mcp_rs5toolsNtB7_12ToolRegistry8registerNvNtB7_6system19get_instance_healthNCB1d_0E0B9_
FNDA:0,_RNCINvMs_NtCsk1nGwz09EVE_16syncthing_mcp_rs5toolsNtB7_12ToolRegistry8registerNvNtB7_6system22get_system_connectionsNCB1d_0E0B9_
FNDA:0,_RNCINvMs_NtCsk1nGwz09EVE_16syncthing_mcp_rs5toolsNtB7_12ToolRegistry8registerNvNtB7_7browser13browse_folderNCB1d_0E0B9_
FNDA:0,_RNCINvMs_NtCsk1nGwz09EVE_16syncthing_mcp_rs5toolsNtB7_12ToolRegistry8registerNvNtB7_7devices14manage_devicesNCB1d_0E0B9_
FNDA:0,_RNCINvMs_NtCsk1nGwz09EVE_16syncthing_mcp_rs5toolsNtB7_12ToolRegistry8registerNvNtB7_7devices16get_device_statsNCB1d_0E0B9_
FNDA:0,_RNCINvMs_NtCsk1nGwz09EVE_16syncthing_mcp_rs5toolsNtB7_12ToolRegistry8registerNvNtB7_7folders14manage_foldersNCB1d_0E0B9_
FNDA:0,_RNCINvMs_NtCsk1nGwz09EVE_16syncthing_mcp_rs5toolsNtB7_12ToolRegistry8registerNvNtB7_7folders14manage_ignoresNCB1d_0E0B9_
FNDA:0,_RNCINvMs_NtCsk1nGwz09EVE_16syncthing_mcp_rs5toolsNtB7_12ToolRegistry8registerNvNtB7_7folders16get_folder_statsNCB1d_0E0B9_
FNDA:0,_RNCINvMs_NtCsk1nGwz09EVE_16syncthing_mcp_rs5toolsNtB7_12ToolRegistry8registerNvNtB7_7folders17configure_sharingNCB1d_0E0B9_
FNDA:0,_RNCINvMs_NtCsk1nGwz09EVE_16syncthing_mcp_rs5toolsNtB7_12ToolRegistry8registerNvNtB7_9bandwidth20get_bandwidth_statusNCB1d_0E0B9_
FNDA:0,_RNCINvMs_NtCsk1nGwz09EVE_16syncthing_mcp_rs5toolsNtB7_12ToolRegistry8registerNvNtB7_9bandwidth20set_bandwidth_limitsNCB1d_0E0B9_
FNDA:0,_RNCINvMs_NtCsk1nGwz09EVE_16syncthing_mcp_rs5toolsNtB7_12ToolRegistry8registerNvNtB7_9bandwidth23set_performance_profileNCB1d_0E0B9_
FNDA:0,_RNCINvMs_NtCsk1nGwz09EVE_16syncthing_mcp_rs5toolsNtB7_12ToolRegistry8registerNvNtB7_9conflicts14list_conflictsNCB1d_0E0B9_
FNDA:0,_RNCINvMs_NtCsk1nGwz09EVE_16syncthing_mcp_rs5toolsNtB7_12ToolRegistry8registerNvNtB7_9conflicts15delete_conflictNCB1d_0E0B9_
FNDA:0,_RNCINvMs_NtCsk1nGwz09EVE_16syncthing_mcp_rs5toolsNtB7_12ToolRegistry8registerNvNtB7_9conflicts16resolve_conflictNCB1d_0E0B9_
FNDA:0,_RNCINvMs_NtCsk1nGwz09EVE_16syncthing_mcp_rs5toolsNtB7_12ToolRegistry8registerNvNtB7_9dashboard20get_global_dashboardNCB1d_0E0B9_
FNDA:0,_RNCNvMs_NtCsk1nGwz09EVE_16syncthing_mcp_rs5toolsNtB6_12ToolRegistry10list_tools0B8_
FNDA:0,_RNCNvMs_NtCsk1nGwz09EVE_16syncthing_mcp_rs5toolsNtB6_12ToolRegistry10list_toolss0_0B8_
FNDA:0,_RNCNvMs_NtCsk1nGwz09EVE_16syncthing_mcp_rs5toolsNtB6_12ToolRegistry10list_toolss_0B8_
FNDA:0,_RNvXNtCs1zQjFe0mrqD_16syncthing_mcp_rs5toolsNtB2_12ToolRegistryNtNtCs8nPosuWgJFh_4core7default7Default7default
FNDA:51,_RINvMs_NtCs1zQjFe0mrqD_16syncthing_mcp_rs5toolsNtB5_12ToolRegistry8registerNvNtB5_12self_healing20monitor_self_healingNCB1b_0EB7_
FNDA:51,_RINvMs_NtCs1zQjFe0mrqD_16syncthing_mcp_rs5toolsNtB5_12ToolRegistry8registerNvNtB5_4diff14diff_conflictsNCB1b_0EB7_
FNDA:51,_RINvMs_NtCs1zQjFe0mrqD_16syncthing_mcp_rs5toolsNtB5_12ToolRegistry8registerNvNtB5_4diff27preview_conflict_resolutionNCB1b_0EB7_
FNDA:51,_RINvMs_NtCs1zQjFe0mrqD_16syncthing_mcp_rs5toolsNtB5_12ToolRegistry8registerNvNtB5_6config16replicate_configNCB1b_0EB7_
FNDA:51,_RINvMs_NtCs1zQjFe0mrqD_16syncthing_mcp_rs5toolsNtB5_12ToolRegistry8registerNvNtB5_6config21diff_instance_configsNCB1b_0EB7_
FNDA:51,_RINvMs_NtCs1zQjFe0mrqD_16syncthing_mcp_rs5toolsNtB5_12ToolRegistry8registerNvNtB5_6config22merge_instance_configsNCB1b_0EB7_
FNDA:51,_RINvMs_NtCs1zQjFe0mrqD_16syncthing_mcp_rs5toolsNtB5_12ToolRegistry8registerNvNtB5_6system13analyze_errorNCB1b_0EB7_
FNDA:51,_RINvMs_NtCs1zQjFe0mrqD_16syncthing_mcp_rs5toolsNtB5_12ToolRegistry8registerNvNtB5_6system14get_system_logNCB1b_0EB7_
FNDA:51,_RINvMs_NtCs1zQjFe0mrqD_16syncthing_mcp_rs5toolsNtB5_12ToolRegistry8registerNvNtB5_6system14list_instancesNCB1b_0EB7_
FNDA:51,_RINvMs_NtCs1zQjFe0mrqD_16syncthing_mcp_rs5toolsNtB5_12ToolRegistry8registerNvNtB5_6system15get_sync_statusNCB1b_0EB7_
FNDA:51,_RINvMs_NtCs1zQjFe0mrqD_16syncthing_mcp_rs5toolsNtB5_12ToolRegistry8registerNvNtB5_6system15maintain_systemNCB1b_0EB7_
FNDA:51,_RINvMs_NtCs1zQjFe0mrqD_16syncthing_mcp_rs5toolsNtB5_12ToolRegistry8registerNvNtB5_6system16get_system_statsNCB1b_0EB7_
FNDA:51,_RINvMs_NtCs1zQjFe0mrqD_16syncthing_mcp_rs5toolsNtB5_12ToolRegistry8registerNvNtB5_6system19get_instance_healthNCB1b_0EB7_
FNDA:51,_RINvMs_NtCs1zQjFe0mrqD_16syncthing_mcp_rs5toolsNtB5_12ToolRegistry8registerNvNtB5_6system22get_system_connectionsNCB1b_0EB7_
FNDA:51,_RINvMs_NtCs1zQjFe0mrqD_16syncthing_mcp_rs5toolsNtB5_12ToolRegistry8registerNvNtB5_7browser13browse_folderNCB1b_0EB7_
FNDA:51,_RINvMs_NtCs1zQjFe0mrqD_16syncthing_mcp_rs5toolsNtB5_12ToolRegistry8registerNvNtB5_7devices14manage_devicesNCB1b_0EB7_
FNDA:51,_RINvMs_NtCs1zQjFe0mrqD_16syncthing_mcp_rs5toolsNtB5_12ToolRegistry8registerNvNtB5_7devices16get_device_statsNCB1b_0EB7_
FNDA:51,_RINvMs_NtCs1zQjFe0mrqD_16syncthing_mcp_rs5toolsNtB5_12ToolRegistry8registerNvNtB5_7folders14manage_foldersNCB1b_0EB7_
FNDA:51,_RINvMs_NtCs1zQjFe0mrqD_16syncthing_mcp_rs5toolsNtB5_12ToolRegistry8registerNvNtB5_7folders14manage_ignoresNCB1b_0EB7_
FNDA:51,_RINvMs_NtCs1zQjFe0mrqD_16syncthing_mcp_rs5toolsNtB5_12ToolRegistry8registerNvNtB5_7folders16get_folder_statsNCB1b_0EB7_
FNDA:51,_RINvMs_NtCs1zQjFe0mrqD_16syncthing_mcp_rs5toolsNtB5_12ToolRegistry8registerNvNtB5_7folders17configure_sharingNCB1b_0EB7_
FNDA:51,_RINvMs_NtCs1zQjFe0mrqD_16syncthing_mcp_rs5toolsNtB5_12ToolRegistry8registerNvNtB5_9bandwidth20get_bandwidth_statusNCB1b_0EB7_
FNDA:51,_RINvMs_NtCs1zQjFe0mrqD_16syncthing_mcp_rs5toolsNtB5_12ToolRegistry8registerNvNtB5_9bandwidth20set_bandwidth_limitsNCB1b_0EB7_
FNDA:51,_RINvMs_NtCs1zQjFe0mrqD_16syncthing_mcp_rs5toolsNtB5_12ToolRegistry8registerNvNtB5_9bandwidth23set_performance_profileNCB1b_0EB7_
FNDA:51,_RINvMs_NtCs1zQjFe0mrqD_16syncthing_mcp_rs5toolsNtB5_12ToolRegistry8registerNvNtB5_9conflicts14list_conflictsNCB1b_0EB7_
FNDA:51,_RINvMs_NtCs1zQjFe0mrqD_16syncthing_mcp_rs5toolsNtB5_12ToolRegistry8registerNvNtB5_9conflicts15delete_conflictNCB1b_0EB7_
FNDA:51,_RINvMs_NtCs1zQjFe0mrqD_16syncthing_mcp_rs5toolsNtB5_12ToolRegistry8registerNvNtB5_9conflicts16resolve_conflictNCB1b_0EB7_
FNDA:51,_RINvMs_NtCs1zQjFe0mrqD_16syncthing_mcp_rs5toolsNtB5_12ToolRegistry8registerNvNtB5_9dashboard20get_global_dashboardNCB1b_0EB7_
FNDA:0,_RNCINvMs_NtCs1zQjFe0mrqD_16syncthing_mcp_rs5toolsNtB7_12ToolRegistry8registerNvNtB7_12self_healing20monitor_self_healingNCB1d_0E0B9_
FNDA:0,_RNCINvMs_NtCs1zQjFe0mrqD_16syncthing_mcp_rs5toolsNtB7_12ToolRegistry8registerNvNtB7_4diff14diff_conflictsNCB1d_0E0B9_
FNDA:0,_RNCINvMs_NtCs1zQjFe0mrqD_16syncthing_mcp_rs5toolsNtB7_12ToolRegistry8registerNvNtB7_4diff27preview_conflict_resolutionNCB1d_0E0B9_
FNDA:1,_RNCINvMs_NtCs1zQjFe0mrqD_16syncthing_mcp_rs5toolsNtB7_12ToolRegistry8registerNvNtB7_6config16replicate_configNCB1d_0E0B9_
FNDA:0,_RNCINvMs_NtCs1zQjFe0mrqD_16syncthing_mcp_rs5toolsNtB7_12ToolRegistry8registerNvNtB7_6config21diff_instance_configsNCB1d_0E0B9_
FNDA:0,_RNCINvMs_NtCs1zQjFe0mrqD_16syncthing_mcp_rs5toolsNtB7_12ToolRegistry8registerNvNtB7_6config22merge_instance_configsNCB1d_0E0B9_
FNDA:0,_RNCINvMs_NtCs1zQjFe0mrqD_16syncthing_mcp_rs5toolsNtB7_12ToolRegistry8registerNvNtB7_6system13analyze_errorNCB1d_0E0B9_
FNDA:1,_RNCINvMs_NtCs1zQjFe0mrqD_16syncthing_mcp_rs5toolsNtB7_12ToolRegistry8registerNvNtB7_6system14get_system_logNCB1d_0E0B9_
FNDA:2,_RNCINvMs_NtCs1zQjFe0mrqD_16syncthing_mcp_rs5toolsNtB7_12ToolRegistry8registerNvNtB7_6system14list_instancesNCB1d_0E0B9_
FNDA:2,_RNCINvMs_NtCs1zQjFe0mrqD_16syncthing_mcp_rs5toolsNtB7_12ToolRegistry8registerNvNtB7_6system15get_sync_statusNCB1d_0E0B9_
FNDA:5,_RNCINvMs_NtCs1zQjFe0mrqD_16syncthing_mcp_rs5toolsNtB7_12ToolRegistry8registerNvNtB7_6system15maintain_systemNCB1d_0E0B9_
FNDA:5,_RNCINvMs_NtCs1zQjFe0mrqD_16syncthing_mcp_rs5toolsNtB7_12ToolRegistry8registerNvNtB7_6system16get_system_statsNCB1d_0E0B9_
FNDA:1,_RNCINvMs_NtCs1zQjFe0mrqD_16syncthing_mcp_rs5toolsNtB7_12ToolRegistry8registerNvNtB7_6system19get_instance_healthNCB1d_0E0B9_
FNDA:1,_RNCINvMs_NtCs1zQjFe0mrqD_16syncthing_mcp_rs5toolsNtB7_12ToolRegistry8registerNvNtB7_6system22get_system_connectionsNCB1d_0E0B9_
FNDA:0,_RNCINvMs_NtCs1zQjFe0mrqD_16syncthing_mcp_rs5toolsNtB7_12ToolRegistry8registerNvNtB7_7browser13browse_folderNCB1d_0E0B9_
FNDA:10,_RNCINvMs_NtCs1zQjFe0mrqD_16syncthing_mcp_rs5toolsNtB7_12ToolRegistry8registerNvNtB7_7devices14manage_devicesNCB1d_0E0B9_
FNDA:1,_RNCINvMs_NtCs1zQjFe0mrqD_16syncthing_mcp_rs5toolsNtB7_12ToolRegistry8registerNvNtB7_7devices16get_device_statsNCB1d_0E0B9_
FNDA:3,_RNCINvMs_NtCs1zQjFe0mrqD_16syncthing_mcp_rs5toolsNtB7_12ToolRegistry8registerNvNtB7_7folders14manage_foldersNCB1d_0E0B9_
FNDA:5,_RNCINvMs_NtCs1zQjFe0mrqD_16syncthing_mcp_rs5toolsNtB7_12ToolRegistry8registerNvNtB7_7folders14manage_ignoresNCB1d_0E0B9_
FNDA:1,_RNCINvMs_NtCs1zQjFe0mrqD_16syncthing_mcp_rs5toolsNtB7_12ToolRegistry8registerNvNtB7_7folders16get_folder_statsNCB1d_0E0B9_
FNDA:3,_RNCINvMs_NtCs1zQjFe0mrqD_16syncthing_mcp_rs5toolsNtB7_12ToolRegistry8registerNvNtB7_7folders17configure_sharingNCB1d_0E0B9_
FNDA:1,_RNCINvMs_NtCs1zQjFe0mrqD_16syncthing_mcp_rs5toolsNtB7_12ToolRegistry8registerNvNtB7_9bandwidth20get_bandwidth_statusNCB1d_0E0B9_
FNDA:1,_RNCINvMs_NtCs1zQjFe0mrqD_16syncthing_mcp_rs5toolsNtB7_12ToolRegistry8registerNvNtB7_9bandwidth20set_bandwidth_limitsNCB1d_0E0B9_
FNDA:1,_RNCINvMs_NtCs1zQjFe0mrqD_16syncthing_mcp_rs5toolsNtB7_12ToolRegistry8registerNvNtB7_9bandwidth23set_performance_profileNCB1d_0E0B9_
FNDA:4,_RNCINvMs_NtCs1zQjFe0mrqD_16syncthing_mcp_rs5toolsNtB7_12ToolRegistry8registerNvNtB7_9conflicts14list_conflictsNCB1d_0E0B9_
FNDA:2,_RNCINvMs_NtCs1zQjFe0mrqD_16syncthing_mcp_rs5toolsNtB7_12ToolRegistry8registerNvNtB7_9conflicts15delete_conflictNCB1d_0E0B9_
FNDA:5,_RNCINvMs_NtCs1zQjFe0mrqD_16syncthing_mcp_rs5toolsNtB7_12ToolRegistry8registerNvNtB7_9conflicts16resolve_conflictNCB1d_0E0B9_
FNDA:0,_RNCINvMs_NtCs1zQjFe0mrqD_16syncthing_mcp_rs5toolsNtB7_12ToolRegistry8registerNvNtB7_9dashboard20get_global_dashboardNCB1d_0E0B9_
FNDA:28,_RNCNvMs_NtCs1zQjFe0mrqD_16syncthing_mcp_rs5toolsNtB6_12ToolRegistry10list_tools0B8_
FNDA:162,_RNCNvMs_NtCs1zQjFe0mrqD_16syncthing_mcp_rs5toolsNtB6_12ToolRegistry10list_toolss0_0B8_
FNDA:28,_RNCNvMs_NtCs1zQjFe0mrqD_16syncthing_mcp_rs5toolsNtB6_12ToolRegistry10list_toolss_0B8_
FNDA:2,_RNvMs_NtCs1zQjFe0mrqD_16syncthing_mcp_rs5toolsNtB4_12ToolRegistry10list_tools
FNDA:58,_RNvMs_NtCs1zQjFe0mrqD_16syncthing_mcp_rs5toolsNtB4_12ToolRegistry3new
FNDA:59,_RNvMs_NtCs1zQjFe0mrqD_16syncthing_mcp_rs5toolsNtB4_12ToolRegistry8get_tool
FNDA:51,_RNvNtCs1zQjFe0mrqD_16syncthing_mcp_rs5tools15create_registry
FNF:10
FNH:9
DA:108,0
DA:109,0
DA:110,0
DA:115,58
DA:116,58
DA:117,58
DA:118,58
DA:119,58
DA:120,58
DA:123,1428
DA:124,1428
DA:125,1428
DA:126,1428
DA:127,1428
DA:128,1428
DA:129,1428
DA:130,1428
DA:131,1428
DA:133,1428
DA:134,1428
DA:135,1428
DA:136,1428
DA:137,1428
DA:138,55
DA:139,55
DA:140,55
DA:141,55
DA:142,55
DA:144,1428
DA:145,1428
DA:146,1428
DA:149,2
DA:150,2
DA:152,28
DA:153,28
DA:154,28
DA:155,28
DA:156,28
DA:157,28
DA:158,28
DA:159,28
DA:160,28
DA:161,28
DA:162,28
DA:163,28
DA:164,28
DA:165,28
DA:166,28
DA:167,28
DA:169,28
DA:170,28
DA:171,28
DA:172,28
DA:174,0
DA:177,162
DA:178,2
DA:179,2
DA:182,59
DA:183,59
DA:184,59
DA:188,51
DA:189,51
DA:191,51
DA:192,51
DA:193,51
DA:194,51
DA:195,51
DA:196,51
DA:201,51
DA:202,51
DA:203,51
DA:204,51
DA:205,51
DA:206,51
DA:211,51
DA:212,51
DA:213,51
DA:214,51
DA:215,51
DA:216,51
DA:217,51
DA:218,51
DA:219,51
DA:221,51
DA:222,51
DA:223,51
DA:226,51
DA:231,51
DA:232,51
DA:233,51
DA:234,51
DA:235,51
DA:236,51
DA:241,51
DA:242,51
DA:243,51
DA:244,51
DA:245,51
DA:246,51
DA:251,51
DA:252,51
DA:253,51
DA:254,51
DA:255,51
DA:256,51
DA:261,51
DA:262,51
DA:263,51
DA:264,51
DA:265,51
DA:266,51
DA:267,51
DA:268,51
DA:269,51
DA:270,51
DA:272,51
DA:273,51
DA:274,51
DA:277,51
DA:282,51
DA:283,51
DA:284,51
DA:285,51
DA:286,51
DA:287,51
DA:288,51
DA:289,51
DA:290,51
DA:291,51
DA:293,51
DA:294,51
DA:295,51
DA:298,51
DA:303,51
DA:304,51
DA:305,51
DA:306,51
DA:307,51
DA:308,51
DA:309,51
DA:310,51
DA:311,51
DA:312,51
DA:314,51
DA:315,51
DA:316,51
DA:318,51
DA:319,51
DA:320,51
DA:323,51
DA:328,51
DA:329,51
DA:330,51
DA:331,51
DA:332,51
DA:333,51
DA:334,51
DA:335,51
DA:336,51
DA:337,51
DA:339,51
DA:340,51
DA:341,51
DA:343,51
DA:344,51
DA:345,51
DA:346,51
DA:348,51
DA:351,51
DA:356,51
DA:357,51
DA:358,51
DA:359,51
DA:360,51
DA:361,51
DA:362,51
DA:363,51
DA:364,51
DA:365,51
DA:367,51
DA:368,51
DA:369,51
DA:371,51
DA:372,51
DA:373,51
DA:376,51
DA:381,51
DA:382,51
DA:383,51
DA:384,51
DA:385,51
DA:386,51
DA:391,51
DA:392,51
DA:393,51
DA:394,51
DA:395,51
DA:396,51
DA:401,51
DA:402,51
DA:403,51
DA:404,51
DA:405,51
DA:406,51
DA:407,51
DA:408,51
DA:409,51
DA:410,51
DA:412,51
DA:413,51
DA:414,51
DA:417,51
DA:422,51
DA:423,51
DA:424,51
DA:425,51
DA:426,51
DA:427,51
DA:428,51
DA:429,51
DA:430,51
DA:432,51
DA:433,51
DA:434,51
DA:436,51
DA:437,51
DA:438,51
DA:439,51
DA:441,51
DA:442,51
DA:443,51
DA:444,51
DA:446,51
DA:447,51
DA:448,51
DA:449,51
DA:452,51
DA:457,51
DA:458,51
DA:459,51
DA:460,51
DA:461,51
DA:462,51
DA:463,51
DA:464,51
DA:465,51
DA:467,51
DA:468,51
DA:469,51
DA:472,51
DA:477,51
DA:478,51
DA:479,51
DA:480,51
DA:481,51
DA:482,51
DA:483,51
DA:484,51
DA:485,51
DA:487,51
DA:488,51
DA:489,51
DA:491,51
DA:492,51
DA:493,51
DA:494,51
DA:497,51
DA:502,51
DA:503,51
DA:504,51
DA:505,51
DA:506,51
DA:507,51
DA:508,51
DA:509,51
DA:510,51
DA:512,51
DA:513,51
DA:514,51
DA:516,51
DA:517,51
DA:518,51
DA:521,51
DA:526,51
DA:527,51
DA:528,51
DA:529,51
DA:530,51
DA:531,51
DA:532,51
DA:533,51
DA:534,51
DA:537,51
DA:542,51
DA:543,51
DA:544,51
DA:545,51
DA:546,51
DA:547,51
DA:548,51
DA:549,51
DA:550,51
DA:552,51
DA:553,51
DA:554,51
DA:555,51
DA:557,51
DA:558,51
DA:559,51
DA:560,51
DA:562,51
DA:563,51
DA:564,51
DA:565,51
DA:567,51
DA:568,51
DA:569,51
DA:570,51
DA:573,51
DA:578,51
DA:579,51
DA:580,51
DA:581,51
DA:582,51
DA:583,51
DA:584,51
DA:585,51
DA:586,51
DA:588,51
DA:589,51
DA:590,51
DA:591,51
DA:593,51
DA:594,51
DA:595,51
DA:596,51
DA:599,51
DA:604,51
DA:605,51
DA:606,51
DA:607,51
DA:608,51
DA:609,51
DA:610,51
DA:611,51
DA:612,51
DA:614,51
DA:615,51
DA:616,51
DA:617,51
DA:618,51
DA:621,51
DA:626,51
DA:627,51
DA:628,51
DA:629,51
DA:630,51
DA:631,51
DA:632,51
DA:633,51
DA:634,51
DA:636,51
DA:637,51
DA:638,51
DA:639,51
DA:642,51
DA:647,51
DA:648,51
DA:649,51
DA:650,51
DA:651,51
DA:652,51
DA:657,51
DA:658,51
DA:659,51
DA:660,51
DA:661,51
DA:662,51
DA:663,51
DA:664,51
DA:665,51
DA:666,51
DA:673,51
DA:674,51
DA:675,51
DA:676,51
DA:677,51
DA:678,51
DA:679,51
DA:680,51
DA:681,51
DA:683,51
DA:684,51
DA:685,51
DA:692,51
DA:693,51
DA:694,51
DA:695,51
DA:696,51
DA:697,51
DA:698,51
DA:699,51
DA:700,51
DA:703,51
DA:708,51
DA:709,51
DA:710,51
DA:711,51
DA:712,51
DA:713,51
DA:718,51
DA:719,51
BRF:0
BRH:0
LF:416
LH:412
end_of_record
SF:/home/nicholas/git/nicholaswilde/syncthing-mcp-rs/src/tools/self_healing.rs
FN:151,_RNCNvMs_NtNtCsk1nGwz09EVE_16syncthing_mcp_rs5tools12self_healingNtB6_18StuckFolderMonitor13should_rescan0Ba_
FN:124,_RNCNvMs_NtNtCsk1nGwz09EVE_16syncthing_mcp_rs5tools12self_healingNtB6_18StuckFolderMonitor5check0Ba_
FN:137,_RNCNvMs_NtNtCsk1nGwz09EVE_16syncthing_mcp_rs5tools12self_healingNtB6_18StuckFolderMonitor5checks_0Ba_
FN:221,_RNCNvNtNtCsk1nGwz09EVE_16syncthing_mcp_rs5tools12self_healing20monitor_self_healing0B7_
FN:170,_RNvMs_NtNtCsk1nGwz09EVE_16syncthing_mcp_rs5tools12self_healingNtB4_18StuckFolderMonitor10get_alerts
FN:163,_RNvMs_NtNtCsk1nGwz09EVE_16syncthing_mcp_rs5tools12self_healingNtB4_18StuckFolderMonitor13record_rescan
FN:148,_RNvMs_NtNtCsk1nGwz09EVE_16syncthing_mcp_rs5tools12self_healingNtB4_18StuckFolderMonitor13should_rescan
FN:85,_RNvMs_NtNtCsk1nGwz09EVE_16syncthing_mcp_rs5tools12self_healingNtB4_18StuckFolderMonitor3new
FN:112,_RNvMs_NtNtCsk1nGwz09EVE_16syncthing_mcp_rs5tools12self_healingNtB4_18StuckFolderMonitor5check
FN:94,_RNvMs_NtNtCsk1nGwz09EVE_16syncthing_mcp_rs5tools12self_healingNtB4_18StuckFolderMonitor6update
FN:177,_RNvNtNtCsk1nGwz09EVE_16syncthing_mcp_rs5tools12self_healing18check_stuck_folder
FN:217,_RNvNtNtCsk1nGwz09EVE_16syncthing_mcp_rs5tools12self_healing20monitor_self_healing
FN:33,_RNvXNtNtCsk1nGwz09EVE_16syncthing_mcp_rs5tools12self_healingNtB2_21StuckFolderThresholdsNtNtCs8nPosuWgJFh_4core7default7Default7default
FN:170,_RNvMs_NtNtCs1zQjFe0mrqD_16syncthing_mcp_rs5tools12self_healingNtB4_18StuckFolderMonitor10get_alerts
FN:163,_RNvMs_NtNtCs1zQjFe0mrqD_16syncthing_mcp_rs5tools12self_healingNtB4_18StuckFolderMonitor13record_rescan
FN:148,_RNvMs_NtNtCs1zQjFe0mrqD_16syncthing_mcp_rs5tools12self_healingNtB4_18StuckFolderMonitor13should_rescan
FN:85,_RNvMs_NtNtCs1zQjFe0mrqD_16syncthing_mcp_rs5tools12self_healingNtB4_18StuckFolderMonitor3new
FN:112,_RNvMs_NtNtCs1zQjFe0mrqD_16syncthing_mcp_rs5tools12self_healingNtB4_18StuckFolderMonitor5check
FN:94,_RNvMs_NtNtCs1zQjFe0mrqD_16syncthing_mcp_rs5tools12self_healingNtB4_18StuckFolderMonitor6update
FN:177,_RNvNtNtCs1zQjFe0mrqD_16syncthing_mcp_rs5tools12self_healing18check_stuck_folder
FN:217,_RNvNtNtCs1zQjFe0mrqD_16syncthing_mcp_rs5tools12self_healing20monitor_self_healing
FN:33,_RNvXNtNtCs1zQjFe0mrqD_16syncthing_mcp_rs5tools12self_healingNtB2_21StuckFolderThresholdsNtNtCs8nPosuWgJFh_4core7default7Default7default
FN:151,_RNCNvMs_NtNtCs1zQjFe0mrqD_16syncthing_mcp_rs5tools12self_healingNtB6_18StuckFolderMonitor13should_rescan0Ba_
FN:124,_RNCNvMs_NtNtCs1zQjFe0mrqD_16syncthing_mcp_rs5tools12self_healingNtB6_18StuckFolderMonitor5check0Ba_
FN:137,_RNCNvMs_NtNtCs1zQjFe0mrqD_16syncthing_mcp_rs5tools12self_healingNtB6_18StuckFolderMonitor5checks_0Ba_
FN:221,_RNCNvNtNtCs1zQjFe0mrqD_16syncthing_mcp_rs5tools12self_healing20monitor_self_healing0B7_
FNDA:0,_RNCNvMs_NtNtCsk1nGwz09EVE_16syncthing_mcp_rs5tools12self_healingNtB6_18StuckFolderMonitor13should_rescan0Ba_
FNDA:0,_RNCNvMs_NtNtCsk1nGwz09EVE_16syncthing_mcp_rs5tools12self_healingNtB6_18StuckFolderMonitor5check0Ba_
FNDA:0,_RNCNvMs_NtNtCsk1nGwz09EVE_16syncthing_mcp_rs5tools12self_healingNtB6_18StuckFolderMonitor5checks_0Ba_
FNDA:0,_RNCNvNtNtCsk1nGwz09EVE_16syncthing_mcp_rs5tools12self_healing20monitor_self_healing0B7_
FNDA:0,_RNvMs_NtNtCsk1nGwz09EVE_16syncthing_mcp_rs5tools12self_healingNtB4_18StuckFolderMonitor10get_alerts
FNDA:0,_RNvMs_NtNtCsk1nGwz09EVE_16syncthing_mcp_rs5tools12self_healingNtB4_18StuckFolderMonitor13record_rescan
FNDA:0,_RNvMs_NtNtCsk1nGwz09EVE_16syncthing_mcp_rs5tools12self_healingNtB4_18StuckFolderMonitor13should_rescan
FNDA:0,_RNvMs_NtNtCsk1nGwz09EVE_16syncthing_mcp_rs5tools12self_healingNtB4_18StuckFolderMonitor3new
FNDA:0,_RNvMs_NtNtCsk1nGwz09EVE_16syncthing_mcp_rs5tools12self_healingNtB4_18StuckFolderMonitor5check
FNDA:0,_RNvMs_NtNtCsk1nGwz09EVE_16syncthing_mcp_rs5tools12self_healingNtB4_18StuckFolderMonitor6update
FNDA:0,_RNvNtNtCsk1nGwz09EVE_16syncthing_mcp_rs5tools12self_healing18check_stuck_folder
FNDA:0,_RNvNtNtCsk1nGwz09EVE_16syncthing_mcp_rs5tools12self_healing20monitor_self_healing
FNDA:0,_RNvXNtNtCsk1nGwz09EVE_16syncthing_mcp_rs5tools12self_healingNtB2_21StuckFolderThresholdsNtNtCs8nPosuWgJFh_4core7default7Default7default
FNDA:6,_RNvMs_NtNtCs1zQjFe0mrqD_16syncthing_mcp_rs5tools12self_healingNtB4_18StuckFolderMonitor10get_alerts
FNDA:1,_RNvMs_NtNtCs1zQjFe0mrqD_16syncthing_mcp_rs5tools12self_healingNtB4_18StuckFolderMonitor13record_rescan
FNDA:8,_RNvMs_NtNtCs1zQjFe0mrqD_16syncthing_mcp_rs5tools12self_healingNtB4_18StuckFolderMonitor13should_rescan
FNDA:5,_RNvMs_NtNtCs1zQjFe0mrqD_16syncthing_mcp_rs5tools12self_healingNtB4_18StuckFolderMonitor3new
FNDA:7,_RNvMs_NtNtCs1zQjFe0mrqD_16syncthing_mcp_rs5tools12self_healingNtB4_18StuckFolderMonitor5check
FNDA:10,_RNvMs_NtNtCs1zQjFe0mrqD_16syncthing_mcp_rs5tools12self_healingNtB4_18StuckFolderMonitor6update
FNDA:11,_RNvNtNtCs1zQjFe0mrqD_16syncthing_mcp_rs5tools12self_healing18check_stuck_folder
FNDA:4,_RNvNtNtCs1zQjFe0mrqD_16syncthing_mcp_rs5tools12self_healing20monitor_self_healing
FNDA:4,_RNvXNtNtCs1zQjFe0mrqD_16syncthing_mcp_rs5tools12self_healingNtB2_21StuckFolderThresholdsNtNtCs8nPosuWgJFh_4core7default7Default7default
FNDA:2,_RNCNvMs_NtNtCs1zQjFe0mrqD_16syncthing_mcp_rs5tools12self_healingNtB6_18StuckFolderMonitor13should_rescan0Ba_
FNDA:0,_RNCNvMs_NtNtCs1zQjFe0mrqD_16syncthing_mcp_rs5tools12self_healingNtB6_18StuckFolderMonitor5check0Ba_
FNDA:1,_RNCNvMs_NtNtCs1zQjFe0mrqD_16syncthing_mcp_rs5tools12self_healingNtB6_18StuckFolderMonitor5checks_0Ba_
FNDA:4,_RNCNvNtNtCs1zQjFe0mrqD_16syncthing_mcp_rs5tools12self_healing20monitor_self_healing0B7_
FNF:13
FNH:12
DA:33,4
DA:34,4
DA:35,4
DA:36,4
DA:37,4
DA:38,4
DA:39,4
DA:40,4
DA:85,5
DA:86,5
DA:87,5
DA:88,5
DA:89,5
DA:90,5
DA:91,5
DA:94,10
DA:95,10
DA:96,6
DA:97,6
DA:98,6
DA:99,4
DA:100,4
DA:101,4
DA:102,4
DA:103,4
DA:104,4
DA:105,4
DA:106,4
DA:107,4
DA:108,10
DA:112,7
DA:113,7
DA:114,7
DA:115,7
DA:116,7
DA:117,7
DA:118,7
DA:119,7
DA:121,7
DA:122,2
DA:124,2
DA:125,0
DA:126,0
DA:127,2
DA:128,2
DA:129,2
DA:130,2
DA:131,2
DA:132,2
DA:133,2
DA:134,0
DA:137,5
DA:141,7
DA:143,7
DA:144,7
DA:148,8
DA:149,8
DA:151,7
DA:152,2
DA:153,1
DA:155,1
DA:157,5
DA:158,1
DA:159,6
DA:160,8
DA:163,1
DA:164,1
DA:165,1
DA:166,1
DA:167,1
DA:170,6
DA:171,6
DA:172,6
DA:177,11
DA:178,11
DA:179,11
DA:180,11
DA:181,11
DA:182,11
DA:183,11
DA:184,9
DA:187,9
DA:188,1
DA:189,1
DA:191,1
DA:192,1
DA:193,1
DA:194,1
DA:195,8
DA:198,8
DA:199,8
DA:200,8
DA:201,6
DA:203,3
DA:204,3
DA:205,3
DA:206,3
DA:207,5
DA:208,2
DA:210,7
DA:211,7
DA:212,7
DA:213,7
DA:214,11
DA:217,4
DA:218,4
DA:219,4
DA:220,4
DA:221,4
DA:222,4
DA:223,4
DA:224,4
DA:227,4
DA:228,4
DA:229,4
DA:230,4
DA:231,4
DA:232,4
DA:236,4
DA:238,4
DA:239,4
DA:240,4
DA:241,4
DA:242,0
DA:243,4
DA:248,4
DA:249,0
DA:250,0
DA:251,0
DA:252,0
DA:253,0
DA:254,0
DA:255,0
DA:256,0
DA:257,0
DA:258,0
DA:262,4
DA:265,4
DA:267,4
DA:268,4
DA:269,4
DA:270,4
DA:271,0
DA:272,4
DA:277,4
DA:278,0
DA:280,0
DA:281,0
DA:282,0
DA:284,0
DA:285,0
DA:286,0
DA:287,0
DA:289,0
DA:290,0
DA:291,0
DA:292,0
DA:293,0
DA:294,0
DA:295,0
DA:296,0
DA:297,0
DA:298,0
DA:299,0
DA:300,0
DA:301,0
DA:302,0
DA:305,4
DA:306,4
DA:307,4
DA:308,4
DA:309,0
DA:310,0
DA:311,0
DA:312,0
DA:316,4
DA:317,4
DA:319,4
DA:320,0
DA:321,0
DA:322,0
DA:323,0
DA:324,0
DA:325,0
DA:326,0
DA:327,0
DA:328,0
DA:329,0
DA:330,0
DA:331,0
DA:332,0
DA:333,4
DA:335,4
DA:336,4
DA:337,4
DA:338,4
DA:339,4
DA:340,4
DA:341,4
BRF:0
BRH:0
LF:203
LH:148
end_of_record
SF:/home/nicholas/git/nicholaswilde/syncthing-mcp-rs/src/tools/system.rs
FN:293,_RNvNtNtCsk1nGwz09EVE_16syncthing_mcp_rs5tools6system13analyze_error
FN:176,_RNvNtNtCsk1nGwz09EVE_16syncthing_mcp_rs5tools6system14get_system_log
FN:197,_RNvNtNtCsk1nGwz09EVE_16syncthing_mcp_rs5tools6system14list_instances
FN:29,_RNvNtNtCsk1nGwz09EVE_16syncthing_mcp_rs5tools6system15get_sync_status
FN:81,_RNvNtNtCsk1nGwz09EVE_16syncthing_mcp_rs5tools6system15maintain_system
FN:9,_RNvNtNtCsk1nGwz09EVE_16syncthing_mcp_rs5tools6system16get_system_stats
FN:246,_RNvNtNtCsk1nGwz09EVE_16syncthing_mcp_rs5tools6system19get_instance_health
FN:142,_RNvNtNtCsk1nGwz09EVE_16syncthing_mcp_rs5tools6system22get_system_connections
FN:300,_RNCNCNvNtNtCsk1nGwz09EVE_16syncthing_mcp_rs5tools6system13analyze_error00B9_
FN:303,_RNCNCNvNtNtCsk1nGwz09EVE_16syncthing_mcp_rs5tools6system13analyze_error0s0_0B9_
FN:301,_RNCNCNvNtNtCsk1nGwz09EVE_16syncthing_mcp_rs5tools6system13analyze_error0s_0B9_
FN:208,_RNCNCNvNtNtCsk1nGwz09EVE_16syncthing_mcp_rs5tools6system14list_instances00B9_
FN:36,_RNCNCNvNtNtCsk1nGwz09EVE_16syncthing_mcp_rs5tools6system15get_sync_status00B9_
FN:41,_RNCNCNvNtNtCsk1nGwz09EVE_16syncthing_mcp_rs5tools6system15get_sync_status0s0_0B9_
FN:42,_RNCNCNvNtNtCsk1nGwz09EVE_16syncthing_mcp_rs5tools6system15get_sync_status0s1_0B9_
FN:37,_RNCNCNvNtNtCsk1nGwz09EVE_16syncthing_mcp_rs5tools6system15get_sync_status0s_0B9_
FN:88,_RNCNCNvNtNtCsk1nGwz09EVE_16syncthing_mcp_rs5tools6system15maintain_system00B9_
FN:93,_RNCNCNvNtNtCsk1nGwz09EVE_16syncthing_mcp_rs5tools6system15maintain_system0s0_0B9_
FN:89,_RNCNCNvNtNtCsk1nGwz09EVE_16syncthing_mcp_rs5tools6system15maintain_system0s_0B9_
FN:263,_RNCNCNvNtNtCsk1nGwz09EVE_16syncthing_mcp_rs5tools6system19get_instance_health00B9_
FN:297,_RNCNvNtNtCsk1nGwz09EVE_16syncthing_mcp_rs5tools6system13analyze_error0B7_
FN:180,_RNCNvNtNtCsk1nGwz09EVE_16syncthing_mcp_rs5tools6system14get_system_log0B7_
FN:201,_RNCNvNtNtCsk1nGwz09EVE_16syncthing_mcp_rs5tools6system14list_instances0B7_
FN:33,_RNCNvNtNtCsk1nGwz09EVE_16syncthing_mcp_rs5tools6system15get_sync_status0B7_
FN:85,_RNCNvNtNtCsk1nGwz09EVE_16syncthing_mcp_rs5tools6system15maintain_system0B7_
FN:13,_RNCNvNtNtCsk1nGwz09EVE_16syncthing_mcp_rs5tools6system16get_system_stats0B7_
FN:250,_RNCNvNtNtCsk1nGwz09EVE_16syncthing_mcp_rs5tools6system19get_instance_health0B7_
FN:146,_RNCNvNtNtCsk1nGwz09EVE_16syncthing_mcp_rs5tools6system22get_system_connections0B7_
FN:293,_RNvNtNtCs1zQjFe0mrqD_16syncthing_mcp_rs5tools6system13analyze_error
FN:176,_RNvNtNtCs1zQjFe0mrqD_16syncthing_mcp_rs5tools6system14get_system_log
FN:197,_RNvNtNtCs1zQjFe0mrqD_16syncthing_mcp_rs5tools6system14list_instances
FN:29,_RNvNtNtCs1zQjFe0mrqD_16syncthing_mcp_rs5tools6system15get_sync_status
FN:81,_RNvNtNtCs1zQjFe0mrqD_16syncthing_mcp_rs5tools6system15maintain_system
FN:9,_RNvNtNtCs1zQjFe0mrqD_16syncthing_mcp_rs5tools6system16get_system_stats
FN:246,_RNvNtNtCs1zQjFe0mrqD_16syncthing_mcp_rs5tools6system19get_instance_health
FN:142,_RNvNtNtCs1zQjFe0mrqD_16syncthing_mcp_rs5tools6system22get_system_connections
FN:300,_RNCNCNvNtNtCs1zQjFe0mrqD_16syncthing_mcp_rs5tools6system13analyze_error00B9_
FN:303,_RNCNCNvNtNtCs1zQjFe0mrqD_16syncthing_mcp_rs5tools6system13analyze_error0s0_0B9_
FN:301,_RNCNCNvNtNtCs1zQjFe0mrqD_16syncthing_mcp_rs5tools6system13analyze_error0s_0B9_
FN:208,_RNCNCNvNtNtCs1zQjFe0mrqD_16syncthing_mcp_rs5tools6system14list_instances00B9_
FN:36,_RNCNCNvNtNtCs1zQjFe0mrqD_16syncthing_mcp_rs5tools6system15get_sync_status00B9_
FN:41,_RNCNCNvNtNtCs1zQjFe0mrqD_16syncthing_mcp_rs5tools6system15get_sync_status0s0_0B9_
FN:42,_RNCNCNvNtNtCs1zQjFe0mrqD_16syncthing_mcp_rs5tools6system15get_sync_status0s1_0B9_
FN:37,_RNCNCNvNtNtCs1zQjFe0mrqD_16syncthing_mcp_rs5tools6system15get_sync_status0s_0B9_
FN:88,_RNCNCNvNtNtCs1zQjFe0mrqD_16syncthing_mcp_rs5tools6system15maintain_system00B9_
FN:93,_RNCNCNvNtNtCs1zQjFe0mrqD_16syncthing_mcp_rs5tools6system15maintain_system0s0_0B9_
FN:89,_RNCNCNvNtNtCs1zQjFe0mrqD_16syncthing_mcp_rs5tools6system15maintain_system0s_0B9_
FN:263,_RNCNCNvNtNtCs1zQjFe0mrqD_16syncthing_mcp_rs5tools6system19get_instance_health00B9_
FN:297,_RNCNvNtNtCs1zQjFe0mrqD_16syncthing_mcp_rs5tools6system13analyze_error0B7_
FN:180,_RNCNvNtNtCs1zQjFe0mrqD_16syncthing_mcp_rs5tools6system14get_system_log0B7_
FN:201,_RNCNvNtNtCs1zQjFe0mrqD_16syncthing_mcp_rs5tools6system14list_instances0B7_
FN:33,_RNCNvNtNtCs1zQjFe0mrqD_16syncthing_mcp_rs5tools6system15get_sync_status0B7_
FN:85,_RNCNvNtNtCs1zQjFe0mrqD_16syncthing_mcp_rs5tools6system15maintain_system0B7_
FN:13,_RNCNvNtNtCs1zQjFe0mrqD_16syncthing_mcp_rs5tools6system16get_system_stats0B7_
FN:250,_RNCNvNtNtCs1zQjFe0mrqD_16syncthing_mcp_rs5tools6system19get_instance_health0B7_
FN:146,_RNCNvNtNtCs1zQjFe0mrqD_16syncthing_mcp_rs5tools6system22get_system_connections0B7_
FNDA:0,_RNvNtNtCsk1nGwz09EVE_16syncthing_mcp_rs5tools6system13analyze_error
FNDA:0,_RNvNtNtCsk1nGwz09EVE_16syncthing_mcp_rs5tools6system14get_system_log
FNDA:0,_RNvNtNtCsk1nGwz09EVE_16syncthing_mcp_rs5tools6system14list_instances
FNDA:0,_RNvNtNtCsk1nGwz09EVE_16syncthing_mcp_rs5tools6system15get_sync_status
FNDA:0,_RNvNtNtCsk1nGwz09EVE_16syncthing_mcp_rs5tools6system15maintain_system
FNDA:0,_RNvNtNtCsk1nGwz09EVE_16syncthing_mcp_rs5tools6system16get_system_stats
FNDA:0,_RNvNtNtCsk1nGwz09EVE_16syncthing_mcp_rs5tools6system19get_instance_health
FNDA:0,_RNvNtNtCsk1nGwz09EVE_16syncthing_mcp_rs5tools6system22get_system_connections
FNDA:0,_RNCNCNvNtNtCsk1nGwz09EVE_16syncthing_mcp_rs5tools6system13analyze_error00B9_
FNDA:0,_RNCNCNvNtNtCsk1nGwz09EVE_16syncthing_mcp_rs5tools6system13analyze_error0s0_0B9_
FNDA:0,_RNCNCNvNtNtCsk1nGwz09EVE_16syncthing_mcp_rs5tools6system13analyze_error0s_0B9_
FNDA:0,_RNCNCNvNtNtCsk1nGwz09EVE_16syncthing_mcp_rs5tools6system14list_instances00B9_
FNDA:0,_RNCNCNvNtNtCsk1nGwz09EVE_16syncthing_mcp_rs5tools6system15get_sync_status00B9_
FNDA:0,_RNCNCNvNtNtCsk1nGwz09EVE_16syncthing_mcp_rs5tools6system15get_sync_status0s0_0B9_
FNDA:0,_RNCNCNvNtNtCsk1nGwz09EVE_16syncthing_mcp_rs5tools6system15get_sync_status0s1_0B9_
FNDA:0,_RNCNCNvNtNtCsk1nGwz09EVE_16syncthing_mcp_rs5tools6system15get_sync_status0s_0B9_
FNDA:0,_RNCNCNvNtNtCsk1nGwz09EVE_16syncthing_mcp_rs5tools6system15maintain_system00B9_
FNDA:0,_RNCNCNvNtNtCsk1nGwz09EVE_16syncthing_mcp_rs5tools6system15maintain_system0s0_0B9_
FNDA:0,_RNCNCNvNtNtCsk1nGwz09EVE_16syncthing_mcp_rs5tools6system15maintain_system0s_0B9_
FNDA:0,_RNCNCNvNtNtCsk1nGwz09EVE_16syncthing_mcp_rs5tools6system19get_instance_health00B9_
FNDA:0,_RNCNvNtNtCsk1nGwz09EVE_16syncthing_mcp_rs5tools6system13analyze_error0B7_
FNDA:0,_RNCNvNtNtCsk1nGwz09EVE_16syncthing_mcp_rs5tools6system14get_system_log0B7_
FNDA:0,_RNCNvNtNtCsk1nGwz09EVE_16syncthing_mcp_rs5tools6system14list_instances0B7_
FNDA:0,_RNCNvNtNtCsk1nGwz09EVE_16syncthing_mcp_rs5tools6system15get_sync_status0B7_
FNDA:0,_RNCNvNtNtCsk1nGwz09EVE_16syncthing_mcp_rs5tools6system15maintain_system0B7_
FNDA:0,_RNCNvNtNtCsk1nGwz09EVE_16syncthing_mcp_rs5tools6system16get_system_stats0B7_
FNDA:0,_RNCNvNtNtCsk1nGwz09EVE_16syncthing_mcp_rs5tools6system19get_instance_health0B7_
FNDA:0,_RNCNvNtNtCsk1nGwz09EVE_16syncthing_mcp_rs5tools6system22get_system_connections0B7_
FNDA:3,_RNvNtNtCs1zQjFe0mrqD_16syncthing_mcp_rs5tools6system13analyze_error
FNDA:1,_RNvNtNtCs1zQjFe0mrqD_16syncthing_mcp_rs5tools6system14get_system_log
FNDA:2,_RNvNtNtCs1zQjFe0mrqD_16syncthing_mcp_rs5tools6system14list_instances
FNDA:2,_RNvNtNtCs1zQjFe0mrqD_16syncthing_mcp_rs5tools6system15get_sync_status
FNDA:5,_RNvNtNtCs1zQjFe0mrqD_16syncthing_mcp_rs5tools6system15maintain_system
FNDA:5,_RNvNtNtCs1zQjFe0mrqD_16syncthing_mcp_rs5tools6system16get_system_stats
FNDA:1,_RNvNtNtCs1zQjFe0mrqD_16syncthing_mcp_rs5tools6system19get_instance_health
FNDA:1,_RNvNtNtCs1zQjFe0mrqD_16syncthing_mcp_rs5tools6system22get_system_connections
FNDA:3,_RNCNCNvNtNtCs1zQjFe0mrqD_16syncthing_mcp_rs5tools6system13analyze_error00B9_
FNDA:1,_RNCNCNvNtNtCs1zQjFe0mrqD_16syncthing_mcp_rs5tools6system13analyze_error0s0_0B9_
FNDA:0,_RNCNCNvNtNtCs1zQjFe0mrqD_16syncthing_mcp_rs5tools6system13analyze_error0s_0B9_
FNDA:0,_RNCNCNvNtNtCs1zQjFe0mrqD_16syncthing_mcp_rs5tools6system14list_instances00B9_
FNDA:2,_RNCNCNvNtNtCs1zQjFe0mrqD_16syncthing_mcp_rs5tools6system15get_sync_status00B9_
FNDA:2,_RNCNCNvNtNtCs1zQjFe0mrqD_16syncthing_mcp_rs5tools6system15get_sync_status0s0_0B9_
FNDA:0,_RNCNCNvNtNtCs1zQjFe0mrqD_16syncthing_mcp_rs5tools6system15get_sync_status0s1_0B9_
FNDA:0,_RNCNCNvNtNtCs1zQjFe0mrqD_16syncthing_mcp_rs5tools6system15get_sync_status0s_0B9_
FNDA:5,_RNCNCNvNtNtCs1zQjFe0mrqD_16syncthing_mcp_rs5tools6system15maintain_system00B9_
FNDA:1,_RNCNCNvNtNtCs1zQjFe0mrqD_16syncthing_mcp_rs5tools6system15maintain_system0s0_0B9_
FNDA:0,_RNCNCNvNtNtCs1zQjFe0mrqD_16syncthing_mcp_rs5tools6system15maintain_system0s_0B9_
FNDA:0,_RNCNCNvNtNtCs1zQjFe0mrqD_16syncthing_mcp_rs5tools6system19get_instance_health00B9_
FNDA:3,_RNCNvNtNtCs1zQjFe0mrqD_16syncthing_mcp_rs5tools6system13analyze_error0B7_
FNDA:1,_RNCNvNtNtCs1zQjFe0mrqD_16syncthing_mcp_rs5tools6system14get_system_log0B7_
FNDA:2,_RNCNvNtNtCs1zQjFe0mrqD_16syncthing_mcp_rs5tools6system14list_instances0B7_
FNDA:2,_RNCNvNtNtCs1zQjFe0mrqD_16syncthing_mcp_rs5tools6system15get_sync_status0B7_
FNDA:5,_RNCNvNtNtCs1zQjFe0mrqD_16syncthing_mcp_rs5tools6system15maintain_system0B7_
FNDA:5,_RNCNvNtNtCs1zQjFe0mrqD_16syncthing_mcp_rs5tools6system16get_system_stats0B7_
FNDA:1,_RNCNvNtNtCs1zQjFe0mrqD_16syncthing_mcp_rs5tools6system19get_instance_health0B7_
FNDA:1,_RNCNvNtNtCs1zQjFe0mrqD_16syncthing_mcp_rs5tools6system22get_system_connections0B7_
FNF:28
FNH:22
DA:9,5
DA:10,5
DA:11,5
DA:12,5
DA:13,5
DA:14,5
DA:15,3
DA:17,3
DA:18,3
DA:19,3
DA:20,3
DA:21,3
DA:22,3
DA:23,3
DA:24,3
DA:25,3
DA:26,5
DA:29,2
DA:30,2
DA:31,2
DA:32,2
DA:33,2
DA:34,2
DA:35,2
DA:36,2
DA:37,2
DA:39,2
DA:40,2
DA:41,2
DA:42,2
DA:44,2
DA:45,2
DA:46,1
DA:47,1
DA:48,1
DA:50,0
DA:52,1
DA:57,1
DA:58,1
DA:59,1
DA:65,0
DA:66,0
DA:67,0
DA:68,0
DA:72,2
DA:73,2
DA:74,2
DA:75,2
DA:76,2
DA:77,2
DA:78,2
DA:81,5
DA:82,5
DA:83,5
DA:84,5
DA:85,5
DA:86,5
DA:87,5
DA:88,5
DA:89,5
DA:91,5
DA:92,5
DA:93,1
DA:94,1
DA:95,1
DA:96,1
DA:98,0
DA:100,1
DA:101,1
DA:102,1
DA:103,1
DA:104,1
DA:105,1
DA:107,4
DA:108,1
DA:109,1
DA:110,1
DA:111,1
DA:112,1
DA:113,1
DA:114,1
DA:116,3
DA:117,1
DA:118,1
DA:119,1
DA:120,1
DA:121,1
DA:122,1
DA:123,1
DA:125,2
DA:126,1
DA:127,1
DA:128,1
DA:129,1
DA:130,1
DA:131,1
DA:132,1
DA:134,1
DA:135,1
DA:136,1
DA:137,1
DA:139,5
DA:142,1
DA:143,1
DA:144,1
DA:145,1
DA:146,1
DA:147,1
DA:149,1
DA:150,1
DA:151,1
DA:152,1
DA:153,1
DA:154,1
DA:155,1
DA:156,1
DA:157,1
DA:158,1
DA:159,1
DA:160,1
DA:161,1
DA:162,1
DA:163,1
DA:164,1
DA:167,1
DA:168,1
DA:169,1
DA:170,1
DA:171,1
DA:172,1
DA:173,1
DA:176,1
DA:177,1
DA:178,1
DA:179,1
DA:180,1
DA:181,1
DA:183,1
DA:184,1
DA:185,1
DA:186,1
DA:188,1
DA:189,1
DA:190,1
DA:191,1
DA:192,1
DA:193,1
DA:194,1
DA:197,2
DA:198,2
DA:199,2
DA:200,2
DA:201,2
DA:202,2
DA:204,3
DA:205,3
DA:206,3
DA:207,3
DA:208,3
DA:209,3
DA:210,3
DA:212,3
DA:213,3
DA:214,0
DA:215,0
DA:218,3
DA:219,3
DA:220,3
DA:221,3
DA:222,3
DA:223,3
DA:224,3
DA:225,3
DA:226,3
DA:227,3
DA:228,3
DA:229,3
DA:230,3
DA:231,3
DA:232,0
DA:233,3
DA:234,3
DA:237,2
DA:238,2
DA:239,2
DA:240,2
DA:241,2
DA:242,2
DA:243,2
DA:246,1
DA:247,1
DA:248,1
DA:249,1
DA:250,1
DA:251,1
DA:253,1
DA:254,1
DA:255,0
DA:256,0
DA:259,1
DA:260,1
DA:261,1
DA:262,1
DA:263,1
DA:265,1
DA:266,1
DA:267,1
DA:268,1
DA:269,1
DA:270,1
DA:271,1
DA:272,1
DA:273,1
DA:274,1
DA:275,1
DA:276,1
DA:277,1
DA:278,1
DA:279,1
DA:280,1
DA:281,0
DA:282,1
DA:284,1
DA:285,1
DA:286,1
DA:287,1
DA:288,1
DA:289,1
DA:290,1
DA:293,3
DA:294,3
DA:295,3
DA:296,3
DA:297,3
DA:298,3
DA:299,3
DA:300,3
DA:301,3
DA:303,3
DA:306,3
DA:307,2
DA:309,1
DA:310,2
DA:311,2
DA:313,0
DA:314,2
DA:315,1
DA:317,2
DA:318,1
DA:320,1
DA:322,1
DA:324,0
DA:325,0
DA:327,0
DA:329,0
DA:332,3
DA:333,1
DA:335,2
DA:338,3
DA:343,3
DA:344,3
DA:345,3
DA:346,3
DA:347,3
DA:348,3
DA:349,3
BRF:0
BRH:0
LF:286
LH:263
end_of_record